
/Users/itsmac/Documents/Binary/coroot-ee:	file format elf64-littleaarch64

Disassembly of section .text:

000000000130c420 <main.main>:
 130c420: f9400b90     	ldr	x16, [x28, #0x10]
 130c424: d111c3f1     	sub	x17, sp, #0x470
 130c428: eb10023f     	cmp	x17, x16
 130c42c: 54023e49     	b.ls	0x1310bf4 <main.main+0x47d4>
 130c430: d113c3f4     	sub	x20, sp, #0x4f0
 130c434: a93ffa9d     	stp	x29, x30, [x20, #-0x8]
 130c438: 9100029f     	mov	sp, x20
 130c43c: d10023fd     	sub	x29, sp, #0x8
 130c440: b00141fb     	adrp	x27, 0x3b49000 <crypto/internal/fips140/nistec.p256PrecomputedEmbed+0x14b80>
 130c444: f947d760     	ldr	x0, [x27, #0xfa8]
 130c448: d503201f     	nop
 130c44c: f0002b81     	adrp	x1, 0x187f000 <type:*+0x449180>
 130c450: 913b7821     	add	x1, x1, #0xede
 130c454: b24007e2     	orr	x2, xzr, #0x3
 130c458: d0002c23     	adrp	x3, 0x1892000 <go:string.*+0x12508>
 130c45c: 9130c863     	add	x3, x3, #0xc32
 130c460: d2800224     	mov	x4, #0x11               // =17
 130c464: 97d48b17     	bl	0x82f0c0 <gopkg.in/alecthomas/kingpin%2ev2.(*Application).Command>
 130c468: d503201f     	nop
 130c46c: b24003e5     	orr	x5, xzr, #0x1
 130c470: 39022005     	strb	w5, [x0, #0x88]
 130c474: b00141fb     	adrp	x27, 0x3b49000 <crypto/internal/fips140/nistec.p256PrecomputedEmbed+0x14b80>
 130c478: f947d760     	ldr	x0, [x27, #0xfa8]
 130c47c: d503201f     	nop
 130c480: 90002c41     	adrp	x1, 0x1894000 <go:string.*+0x14508>
 130c484: 911ce421     	add	x1, x1, #0x739
 130c488: d2800242     	mov	x2, #0x12               // =18
 130c48c: b0002d83     	adrp	x3, 0x18bd000 <go:string.*+0x3d508>
 130c490: 9104a463     	add	x3, x3, #0x129
 130c494: d28004e4     	mov	x4, #0x27               // =39
 130c498: 97d48b0a     	bl	0x82f0c0 <gopkg.in/alecthomas/kingpin%2ev2.(*Application).Command>
 130c49c: f90097e0     	str	x0, [sp, #0x128]
 130c4a0: 97d4a41c     	bl	0x835510 <gopkg.in/alecthomas/kingpin%2ev2.Parse>
 130c4a4: f900fbe0     	str	x0, [sp, #0x1f0]
 130c4a8: f9005fe1     	str	x1, [sp, #0xb8]
 130c4ac: f0001165     	adrp	x5, 0x153b000 <type:*+0x105180>
 130c4b0: 911600a5     	add	x5, x5, #0x580
 130c4b4: b000d6e6     	adrp	x6, 0x2de9000 <$f64.5e50000000000000>
 130c4b8: 9101a0c6     	add	x6, x6, #0x68
 130c4bc: 911263fb     	add	x27, sp, #0x498
 130c4c0: a9001b65     	stp	x5, x6, [x27]
 130c4c4: 90014220     	adrp	x0, 0x3b50000 <github.com/gorilla/websocket.nilDialer+0x60>
 130c4c8: 91178000     	add	x0, x0, #0x5e0
 130c4cc: aa1f03e1     	mov	x1, xzr
 130c4d0: b0002be2     	adrp	x2, 0x1889000 <go:string.*+0x9508>
 130c4d4: 91328042     	add	x2, x2, #0xca0
 130c4d8: d2800163     	mov	x3, #0xb                // =11
 130c4dc: 911263e4     	add	x4, sp, #0x498
 130c4e0: b24003e5     	orr	x5, xzr, #0x1
 130c4e4: aa0503e6     	mov	x6, x5
 130c4e8: 97d641ce     	bl	0x89cc20 <k8s.io/klog.(*loggingT).printf>
 130c4ec: 911223fb     	add	x27, sp, #0x488
 130c4f0: a9007f7f     	stp	xzr, xzr, [x27]
 130c4f4: b00139bb     	adrp	x27, 0x3a41000 <github.com/mattn/go-sqlite3._cgo_007649fec91e_Cfunc_sqlite3_value_double>
 130c4f8: 9115c37b     	add	x27, x27, #0x570
 130c4fc: a9400760     	ldp	x0, x1, [x27]
 130c500: 97c5c51c     	bl	0x47d970 <runtime.convTstring>
 130c504: f0001165     	adrp	x5, 0x153b000 <type:*+0x105180>
 130c508: 911600a5     	add	x5, x5, #0x580
 130c50c: 911223fb     	add	x27, sp, #0x488
 130c510: a9000365     	stp	x5, x0, [x27]
 130c514: 90014220     	adrp	x0, 0x3b50000 <github.com/gorilla/websocket.nilDialer+0x60>
 130c518: 91178000     	add	x0, x0, #0x5e0
 130c51c: aa1f03e1     	mov	x1, xzr
 130c520: b0002be2     	adrp	x2, 0x1889000 <go:string.*+0x9508>
 130c524: 9132ac42     	add	x2, x2, #0xcab
 130c528: d2800163     	mov	x3, #0xb                // =11
 130c52c: 911223e4     	add	x4, sp, #0x488
 130c530: b24003e5     	orr	x5, xzr, #0x1
 130c534: aa0503e6     	mov	x6, x5
 130c538: 97d641ba     	bl	0x89cc20 <k8s.io/klog.(*loggingT).printf>
 130c53c: 97fffa0d     	bl	0x130ad70 <github.com/coroot/enterprise/config.Load>
 130c540: f90103e0     	str	x0, [sp, #0x200]
 130c544: b40002c1     	cbz	x1, 0x130c59c <main.main+0x17c>
 130c548: 9111e3fb     	add	x27, sp, #0x478
 130c54c: a9007f7f     	stp	xzr, xzr, [x27]
 130c550: b4000041     	cbz	x1, 0x130c558 <main.main+0x138>
 130c554: f9400421     	ldr	x1, [x1, #0x8]
 130c558: 9111e3fb     	add	x27, sp, #0x478
 130c55c: a9000b61     	stp	x1, x2, [x27]
 130c560: b24003e7     	orr	x7, xzr, #0x1
 130c564: 900143c8     	adrp	x8, 0x3b84000 <crypto/internal/fips140deps/cpu.S390XHasSHA3>
 130c568: 91008108     	add	x8, x8, #0x20
 130c56c: 889ffd07     	stlr	w7, [x8]
 130c570: 90014220     	adrp	x0, 0x3b50000 <github.com/gorilla/websocket.nilDialer+0x60>
 130c574: 91178000     	add	x0, x0, #0x5e0
 130c578: b24007e1     	orr	x1, xzr, #0x3
 130c57c: 90002ca2     	adrp	x2, 0x18a0000 <go:string.*+0x20508>
 130c580: 913e8442     	add	x2, x2, #0xfa1
 130c584: d2800323     	mov	x3, #0x19               // =25
 130c588: 9111e3e4     	add	x4, sp, #0x478
 130c58c: b24003e5     	orr	x5, xzr, #0x1
 130c590: aa0503e6     	mov	x6, x5
 130c594: 97d641a3     	bl	0x89cc20 <k8s.io/klog.(*loggingT).printf>
 130c598: f94103e0     	ldr	x0, [sp, #0x200]
 130c59c: f9400805     	ldr	x5, [x0, #0x10]
 130c5a0: b5000645     	cbnz	x5, 0x130c668 <main.main+0x248>
 130c5a4: b00141fb     	adrp	x27, 0x3b49000 <crypto/internal/fips140/nistec.p256PrecomputedEmbed+0x14b80>
 130c5a8: f946d361     	ldr	x1, [x27, #0xda0]
 130c5ac: d503201f     	nop
 130c5b0: 9000d740     	adrp	x0, 0x2df4000 <github.com/openai/openai-go/v3/packages/param..dict.MarshalObject[github.com/openai/openai-go/v3/responses.ResponseInputItemMcpApprovalRequestParam]>
 130c5b4: 91356000     	add	x0, x0, #0xd58
 130c5b8: aa1f03e2     	mov	x2, xzr
 130c5bc: aa1f03e3     	mov	x3, xzr
 130c5c0: aa0303e4     	mov	x4, x3
 130c5c4: 97c823af     	bl	0x515480 <fmt.Fprintln>
 130c5c8: f0001165     	adrp	x5, 0x153b000 <type:*+0x105180>
 130c5cc: 911600a5     	add	x5, x5, #0x580
 130c5d0: b000d6e6     	adrp	x6, 0x2de9000 <$f64.5e50000000000000>
 130c5d4: 9101e0c6     	add	x6, x6, #0x78
 130c5d8: 9111a3fb     	add	x27, sp, #0x468
 130c5dc: a9001b65     	stp	x5, x6, [x27]
 130c5e0: b00141fb     	adrp	x27, 0x3b49000 <crypto/internal/fips140/nistec.p256PrecomputedEmbed+0x14b80>
 130c5e4: f946d361     	ldr	x1, [x27, #0xda0]
 130c5e8: 9000d740     	adrp	x0, 0x2df4000 <github.com/openai/openai-go/v3/packages/param..dict.MarshalObject[github.com/openai/openai-go/v3/responses.ResponseInputItemMcpApprovalRequestParam]>
 130c5ec: 91356000     	add	x0, x0, #0xd58
 130c5f0: 9111a3e2     	add	x2, sp, #0x468
 130c5f4: b24003e3     	orr	x3, xzr, #0x1
 130c5f8: aa0303e4     	mov	x4, x3
 130c5fc: 97c823a1     	bl	0x515480 <fmt.Fprintln>
 130c600: f0001165     	adrp	x5, 0x153b000 <type:*+0x105180>
 130c604: 911600a5     	add	x5, x5, #0x580
 130c608: b000d6e6     	adrp	x6, 0x2de9000 <$f64.5e50000000000000>
 130c60c: 910220c6     	add	x6, x6, #0x88
 130c610: 911163fb     	add	x27, sp, #0x458
 130c614: a9001b65     	stp	x5, x6, [x27]
 130c618: b00141fb     	adrp	x27, 0x3b49000 <crypto/internal/fips140/nistec.p256PrecomputedEmbed+0x14b80>
 130c61c: f946d361     	ldr	x1, [x27, #0xda0]
 130c620: 9000d740     	adrp	x0, 0x2df4000 <github.com/openai/openai-go/v3/packages/param..dict.MarshalObject[github.com/openai/openai-go/v3/responses.ResponseInputItemMcpApprovalRequestParam]>
 130c624: 91356000     	add	x0, x0, #0xd58
 130c628: 911163e2     	add	x2, sp, #0x458
 130c62c: b24003e3     	orr	x3, xzr, #0x1
 130c630: aa0303e4     	mov	x4, x3
 130c634: 97c82393     	bl	0x515480 <fmt.Fprintln>
 130c638: b00141fb     	adrp	x27, 0x3b49000 <crypto/internal/fips140/nistec.p256PrecomputedEmbed+0x14b80>
 130c63c: f946d361     	ldr	x1, [x27, #0xda0]
 130c640: d503201f     	nop
 130c644: 9000d740     	adrp	x0, 0x2df4000 <github.com/openai/openai-go/v3/packages/param..dict.MarshalObject[github.com/openai/openai-go/v3/responses.ResponseInputItemMcpApprovalRequestParam]>
 130c648: 91356000     	add	x0, x0, #0xd58
 130c64c: aa1f03e2     	mov	x2, xzr
 130c650: aa1f03e3     	mov	x3, xzr
 130c654: aa0303e4     	mov	x4, x3
 130c658: 97c8238a     	bl	0x515480 <fmt.Fprintln>
 130c65c: b24003e0     	orr	x0, xzr, #0x1
 130c660: 97c8022c     	bl	0x50cf10 <os.Exit>
 130c664: f94103e0     	ldr	x0, [sp, #0x200]
 130c668: f9400002     	ldr	x2, [x0]
 130c66c: a9438440     	ldp	x0, x1, [x2, #0x38]
 130c670: 97d69e74     	bl	0x8b4040 <github.com/coroot/coroot/utils.CreateDirectoryIfNotExists>
 130c674: b4000240     	cbz	x0, 0x130c6bc <main.main+0x29c>
 130c678: 911123fb     	add	x27, sp, #0x448
 130c67c: a9007f7f     	stp	xzr, xzr, [x27]
 130c680: b4000040     	cbz	x0, 0x130c688 <main.main+0x268>
 130c684: f9400400     	ldr	x0, [x0, #0x8]
 130c688: 911123fb     	add	x27, sp, #0x448
 130c68c: a9000760     	stp	x0, x1, [x27]
 130c690: b24003e5     	orr	x5, xzr, #0x1
 130c694: 900143c6     	adrp	x6, 0x3b84000 <crypto/internal/fips140deps/cpu.S390XHasSHA3>
 130c698: 910080c6     	add	x6, x6, #0x20
 130c69c: 889ffcc5     	stlr	w5, [x6]
 130c6a0: 90014220     	adrp	x0, 0x3b50000 <github.com/gorilla/websocket.nilDialer+0x60>
 130c6a4: 91178000     	add	x0, x0, #0x5e0
 130c6a8: b24007e1     	orr	x1, xzr, #0x3
 130c6ac: 911123e2     	add	x2, sp, #0x448
 130c6b0: b24003e3     	orr	x3, xzr, #0x1
 130c6b4: aa0303e4     	mov	x4, x3
 130c6b8: 97d640e6     	bl	0x89ca50 <k8s.io/klog.(*loggingT).println>
 130c6bc: f94103e5     	ldr	x5, [sp, #0x200]
 130c6c0: f94000a6     	ldr	x6, [x5]
 130c6c4: f9404cc6     	ldr	x6, [x6, #0x98]
 130c6c8: b40002c6     	cbz	x6, 0x130c720 <main.main+0x300>
 130c6cc: f94004c6     	ldr	x6, [x6, #0x8]
 130c6d0: b4000286     	cbz	x6, 0x130c720 <main.main+0x300>
 130c6d4: f0001165     	adrp	x5, 0x153b000 <type:*+0x105180>
 130c6d8: 911600a5     	add	x5, x5, #0x580
 130c6dc: b000d6e6     	adrp	x6, 0x2de9000 <$f64.5e50000000000000>
 130c6e0: 910260c6     	add	x6, x6, #0x98
 130c6e4: 9110e3fb     	add	x27, sp, #0x438
 130c6e8: a9001b65     	stp	x5, x6, [x27]
 130c6ec: 90014220     	adrp	x0, 0x3b50000 <github.com/gorilla/websocket.nilDialer+0x60>
 130c6f0: 91178000     	add	x0, x0, #0x5e0
 130c6f4: aa1f03e1     	mov	x1, xzr
 130c6f8: 9110e3e2     	add	x2, sp, #0x438
 130c6fc: b24003e3     	orr	x3, xzr, #0x1
 130c700: aa0303e4     	mov	x4, x3
 130c704: 97d640d3     	bl	0x89ca50 <k8s.io/klog.(*loggingT).println>
 130c708: f94103e5     	ldr	x5, [sp, #0x200]
 130c70c: f94000a5     	ldr	x5, [x5]
 130c710: f9404ca5     	ldr	x5, [x5, #0x98]
 130c714: a94004a0     	ldp	x0, x1, [x5]
 130c718: 97f699da     	bl	0x10b2e80 <github.com/coroot/enterprise/db.NewPostgres>
 130c71c: 14000012     	b	0x130c764 <main.main+0x344>
 130c720: f0001165     	adrp	x5, 0x153b000 <type:*+0x105180>
 130c724: 911600a5     	add	x5, x5, #0x580
 130c728: b000d6e6     	adrp	x6, 0x2de9000 <$f64.5e50000000000000>
 130c72c: 9102a0c6     	add	x6, x6, #0xa8
 130c730: 9110a3fb     	add	x27, sp, #0x428
 130c734: a9001b65     	stp	x5, x6, [x27]
 130c738: 90014220     	adrp	x0, 0x3b50000 <github.com/gorilla/websocket.nilDialer+0x60>
 130c73c: 91178000     	add	x0, x0, #0x5e0
 130c740: aa1f03e1     	mov	x1, xzr
 130c744: 9110a3e2     	add	x2, sp, #0x428
 130c748: b24003e3     	orr	x3, xzr, #0x1
 130c74c: aa0303e4     	mov	x4, x3
 130c750: 97d640c0     	bl	0x89ca50 <k8s.io/klog.(*loggingT).println>
 130c754: f94103e5     	ldr	x5, [sp, #0x200]
 130c758: f94000a5     	ldr	x5, [x5]
 130c75c: a94384a0     	ldp	x0, x1, [x5, #0x38]
 130c760: 97f699a0     	bl	0x10b2de0 <github.com/coroot/enterprise/db.NewSqlite>
 130c764: f900f3e0     	str	x0, [sp, #0x1e0]
 130c768: b4000261     	cbz	x1, 0x130c7b4 <main.main+0x394>
 130c76c: 911063fb     	add	x27, sp, #0x418
 130c770: a9007f7f     	stp	xzr, xzr, [x27]
 130c774: b4000041     	cbz	x1, 0x130c77c <main.main+0x35c>
 130c778: f9400421     	ldr	x1, [x1, #0x8]
 130c77c: 911063fb     	add	x27, sp, #0x418
 130c780: a9000b61     	stp	x1, x2, [x27]
 130c784: b24003e5     	orr	x5, xzr, #0x1
 130c788: 900143c6     	adrp	x6, 0x3b84000 <crypto/internal/fips140deps/cpu.S390XHasSHA3>
 130c78c: 910080c6     	add	x6, x6, #0x20
 130c790: 889ffcc5     	stlr	w5, [x6]
 130c794: 90014220     	adrp	x0, 0x3b50000 <github.com/gorilla/websocket.nilDialer+0x60>
 130c798: 91178000     	add	x0, x0, #0x5e0
 130c79c: b24007e1     	orr	x1, xzr, #0x3
 130c7a0: 911063e2     	add	x2, sp, #0x418
 130c7a4: b24003e3     	orr	x3, xzr, #0x1
 130c7a8: aa0303e4     	mov	x4, x3
 130c7ac: 97d640a9     	bl	0x89ca50 <k8s.io/klog.(*loggingT).println>
 130c7b0: f940f3e0     	ldr	x0, [sp, #0x1e0]
 130c7b4: 9000d744     	adrp	x4, 0x2df4000 <github.com/openai/openai-go/v3/packages/param..dict.MarshalObject[github.com/openai/openai-go/v3/responses.ResponseInputItemMcpApprovalRequestParam]>
 130c7b8: 9135e084     	add	x4, x4, #0xd78
 130c7bc: f00143a5     	adrp	x5, 0x3b83000 <runtime.mheap_+0x18720>
 130c7c0: 913e80a5     	add	x5, x5, #0xfa0
 130c7c4: 911363fb     	add	x27, sp, #0x4d8
 130c7c8: a9001764     	stp	x4, x5, [x27]
 130c7cc: f9400000     	ldr	x0, [x0]
 130c7d0: 911363e1     	add	x1, sp, #0x4d8
 130c7d4: b24003e2     	orr	x2, xzr, #0x1
 130c7d8: aa0203e3     	mov	x3, x2
 130c7dc: 97e0a70d     	bl	0xb36410 <github.com/coroot/coroot/db.(*DB).Migrate>
 130c7e0: b4000240     	cbz	x0, 0x130c828 <main.main+0x408>
 130c7e4: 911023fb     	add	x27, sp, #0x408
 130c7e8: a9007f7f     	stp	xzr, xzr, [x27]
 130c7ec: b4000040     	cbz	x0, 0x130c7f4 <main.main+0x3d4>
 130c7f0: f9400400     	ldr	x0, [x0, #0x8]
 130c7f4: 911023fb     	add	x27, sp, #0x408
 130c7f8: a9000760     	stp	x0, x1, [x27]
 130c7fc: b24003e5     	orr	x5, xzr, #0x1
 130c800: 900143c6     	adrp	x6, 0x3b84000 <crypto/internal/fips140deps/cpu.S390XHasSHA3>
 130c804: 910080c6     	add	x6, x6, #0x20
 130c808: 889ffcc5     	stlr	w5, [x6]
 130c80c: 90014220     	adrp	x0, 0x3b50000 <github.com/gorilla/websocket.nilDialer+0x60>
 130c810: 91178000     	add	x0, x0, #0x5e0
 130c814: b24007e1     	orr	x1, xzr, #0x3
 130c818: 911023e2     	add	x2, sp, #0x408
 130c81c: b24003e3     	orr	x3, xzr, #0x1
 130c820: aa0303e4     	mov	x4, x3
 130c824: 97d6408b     	bl	0x89ca50 <k8s.io/klog.(*loggingT).println>
 130c828: f94097e0     	ldr	x0, [sp, #0x128]
 130c82c: 97d49a29     	bl	0x8330d0 <gopkg.in/alecthomas/kingpin%2ev2.(*CmdClause).FullCommand>
 130c830: f9405fe2     	ldr	x2, [sp, #0xb8]
 130c834: eb02003f     	cmp	x1, x2
 130c838: 540000a1     	b.ne	0x130c84c <main.main+0x42c>
 130c83c: aa0003e1     	mov	x1, x0
 130c840: f940fbe0     	ldr	x0, [sp, #0x1f0]
 130c844: 97c3ea3b     	bl	0x407130 <runtime.memequal>
 130c848: 37003e20     	tbnz	w0, #0x0, 0x130d00c <main.main+0xbec>
 130c84c: f94103e0     	ldr	x0, [sp, #0x200]
 130c850: f940f3e1     	ldr	x1, [sp, #0x1e0]
 130c854: 97fffa17     	bl	0x130b0b0 <github.com/coroot/enterprise/config.(*Config).Bootstrap>
 130c858: b4000240     	cbz	x0, 0x130c8a0 <main.main+0x480>
 130c85c: 910f23fb     	add	x27, sp, #0x3c8
 130c860: a9007f7f     	stp	xzr, xzr, [x27]
 130c864: b4000040     	cbz	x0, 0x130c86c <main.main+0x44c>
 130c868: f9400400     	ldr	x0, [x0, #0x8]
 130c86c: 910f23fb     	add	x27, sp, #0x3c8
 130c870: a9000760     	stp	x0, x1, [x27]
 130c874: b24003e5     	orr	x5, xzr, #0x1
 130c878: 900143c6     	adrp	x6, 0x3b84000 <crypto/internal/fips140deps/cpu.S390XHasSHA3>
 130c87c: 910080c6     	add	x6, x6, #0x20
 130c880: 889ffcc5     	stlr	w5, [x6]
 130c884: 90014220     	adrp	x0, 0x3b50000 <github.com/gorilla/websocket.nilDialer+0x60>
 130c888: 91178000     	add	x0, x0, #0x5e0
 130c88c: b24007e1     	orr	x1, xzr, #0x3
 130c890: 910f23e2     	add	x2, sp, #0x3c8
 130c894: b24003e3     	orr	x3, xzr, #0x1
 130c898: aa0303e4     	mov	x4, x3
 130c89c: 97d6406d     	bl	0x89ca50 <k8s.io/klog.(*loggingT).println>
 130c8a0: f94103e2     	ldr	x2, [sp, #0x200]
 130c8a4: f9400042     	ldr	x2, [x2]
 130c8a8: a9438440     	ldp	x0, x1, [x2, #0x38]
 130c8ac: 97d69e89     	bl	0x8b42d0 <github.com/coroot/coroot/utils.GetInstanceUuid>
 130c8b0: f900d7e0     	str	x0, [sp, #0x1a8]
 130c8b4: f9004fe1     	str	x1, [sp, #0x98]
 130c8b8: f940f3e2     	ldr	x2, [sp, #0x1e0]
 130c8bc: f9400040     	ldr	x0, [x2]
 130c8c0: 97e0a7f8     	bl	0xb368a0 <github.com/coroot/coroot/db.(*DB).GetDeploymentUuid>
 130c8c4: f900ebe0     	str	x0, [sp, #0x1d0]
 130c8c8: f9005be1     	str	x1, [sp, #0xb0]
 130c8cc: b4000282     	cbz	x2, 0x130c91c <main.main+0x4fc>
 130c8d0: 910ee3fb     	add	x27, sp, #0x3b8
 130c8d4: a9007f7f     	stp	xzr, xzr, [x27]
 130c8d8: b4000042     	cbz	x2, 0x130c8e0 <main.main+0x4c0>
 130c8dc: f9400442     	ldr	x2, [x2, #0x8]
 130c8e0: 910ee3fb     	add	x27, sp, #0x3b8
 130c8e4: a9000f62     	stp	x2, x3, [x27]
 130c8e8: b24003e5     	orr	x5, xzr, #0x1
 130c8ec: 900143c6     	adrp	x6, 0x3b84000 <crypto/internal/fips140deps/cpu.S390XHasSHA3>
 130c8f0: 910080c6     	add	x6, x6, #0x20
 130c8f4: 889ffcc5     	stlr	w5, [x6]
 130c8f8: 90014220     	adrp	x0, 0x3b50000 <github.com/gorilla/websocket.nilDialer+0x60>
 130c8fc: 91178000     	add	x0, x0, #0x5e0
 130c900: b24007e1     	orr	x1, xzr, #0x3
 130c904: 910ee3e2     	add	x2, sp, #0x3b8
 130c908: b24003e3     	orr	x3, xzr, #0x1
 130c90c: aa0303e4     	mov	x4, x3
 130c910: 97d64050     	bl	0x89ca50 <k8s.io/klog.(*loggingT).println>
 130c914: f940ebe0     	ldr	x0, [sp, #0x1d0]
 130c918: f9405be1     	ldr	x1, [sp, #0xb0]
 130c91c: f94103e2     	ldr	x2, [sp, #0x200]
 130c920: f9400043     	ldr	x3, [x2]
 130c924: f9405463     	ldr	x3, [x3, #0xa8]
 130c928: b5000063     	cbnz	x3, 0x130c934 <main.main+0x514>
 130c92c: aa1f03e3     	mov	x3, xzr
 130c930: 1400004e     	b	0x130ca68 <main.main+0x648>
 130c934: f900ffe3     	str	x3, [sp, #0x1f8]
 130c938: d0002660     	adrp	x0, 0x17da000 <type:*+0x3a4180>
 130c93c: 91150000     	add	x0, x0, #0x540
 130c940: 97c44304     	bl	0x41d550 <runtime.newobject>
 130c944: b24003e1     	orr	x1, xzr, #0x1
 130c948: 39000001     	strb	w1, [x0]
 130c94c: d0002ba1     	adrp	x1, 0x1882000 <go:string.*+0x2508>
 130c950: 911f7421     	add	x1, x1, #0x7dd
 130c954: b27f07e2     	orr	x2, xzr, #0x6
 130c958: a9008801     	stp	x1, x2, [x0, #0x8]
 130c95c: f940ffe1     	ldr	x1, [sp, #0x1f8]
 130c960: a9401023     	ldp	x3, x4, [x1]
 130c964: f9001004     	str	x4, [x0, #0x20]
 130c968: 900143db     	adrp	x27, 0x3b84000 <crypto/internal/fips140deps/cpu.S390XHasSHA3>
 130c96c: b94a7364     	ldr	w4, [x27, #0xa70]
 130c970: 34000064     	cbz	w4, 0x130c97c <main.main+0x55c>
 130c974: 97c5ef33     	bl	0x488640 <runtime.gcWriteBarrier1>
 130c978: f9000323     	str	x3, [x25]
 130c97c: f9000c03     	str	x3, [x0, #0x18]
 130c980: a9411023     	ldp	x3, x4, [x1, #0x10]
 130c984: f9001804     	str	x4, [x0, #0x30]
 130c988: 900143db     	adrp	x27, 0x3b84000 <crypto/internal/fips140deps/cpu.S390XHasSHA3>
 130c98c: b94a7364     	ldr	w4, [x27, #0xa70]
 130c990: 34000064     	cbz	w4, 0x130c99c <main.main+0x57c>
 130c994: 97c5ef2b     	bl	0x488640 <runtime.gcWriteBarrier1>
 130c998: f9000323     	str	x3, [x25]
 130c99c: f9001403     	str	x3, [x0, #0x28]
 130c9a0: a9421023     	ldp	x3, x4, [x1, #0x20]
 130c9a4: f9002004     	str	x4, [x0, #0x40]
 130c9a8: 900143db     	adrp	x27, 0x3b84000 <crypto/internal/fips140deps/cpu.S390XHasSHA3>
 130c9ac: b94a7364     	ldr	w4, [x27, #0xa70]
 130c9b0: 34000064     	cbz	w4, 0x130c9bc <main.main+0x59c>
 130c9b4: 97c5ef23     	bl	0x488640 <runtime.gcWriteBarrier1>
 130c9b8: f9000323     	str	x3, [x25]
 130c9bc: f9001c03     	str	x3, [x0, #0x38]
 130c9c0: a904fc1f     	stp	xzr, xzr, [x0, #0x48]
 130c9c4: a9431023     	ldp	x3, x4, [x1, #0x30]
 130c9c8: f9003004     	str	x4, [x0, #0x60]
 130c9cc: 900143db     	adrp	x27, 0x3b84000 <crypto/internal/fips140deps/cpu.S390XHasSHA3>
 130c9d0: b94a7364     	ldr	w4, [x27, #0xa70]
 130c9d4: 34000064     	cbz	w4, 0x130c9e0 <main.main+0x5c0>
 130c9d8: 97c5ef1a     	bl	0x488640 <runtime.gcWriteBarrier1>
 130c9dc: f9000323     	str	x3, [x25]
 130c9e0: f9002c03     	str	x3, [x0, #0x58]
 130c9e4: 39410023     	ldrb	w3, [x1, #0x40]
 130c9e8: 3901a003     	strb	w3, [x0, #0x68]
 130c9ec: 39410421     	ldrb	w1, [x1, #0x41]
 130c9f0: 3901a401     	strb	w1, [x0, #0x69]
 130c9f4: f9401801     	ldr	x1, [x0, #0x30]
 130c9f8: b50001a1     	cbnz	x1, 0x130ca2c <main.main+0x60c>
 130c9fc: b2400be1     	orr	x1, xzr, #0x7
 130ca00: f9001801     	str	x1, [x0, #0x30]
 130ca04: 900143db     	adrp	x27, 0x3b84000 <crypto/internal/fips140deps/cpu.S390XHasSHA3>
 130ca08: b94a7363     	ldr	w3, [x27, #0xa70]
 130ca0c: 34000083     	cbz	w3, 0x130ca1c <main.main+0x5fc>
 130ca10: f9401403     	ldr	x3, [x0, #0x28]
 130ca14: 97c5ef0b     	bl	0x488640 <runtime.gcWriteBarrier1>
 130ca18: f9000323     	str	x3, [x25]
 130ca1c: 90002bc3     	adrp	x3, 0x1884000 <go:string.*+0x4508>
 130ca20: 9102dc63     	add	x3, x3, #0xb7
 130ca24: f9001403     	str	x3, [x0, #0x28]
 130ca28: 14000002     	b	0x130ca30 <main.main+0x610>
 130ca2c: b2400be1     	orr	x1, xzr, #0x7
 130ca30: f9403003     	ldr	x3, [x0, #0x60]
 130ca34: b5000163     	cbnz	x3, 0x130ca60 <main.main+0x640>
 130ca38: f9003001     	str	x1, [x0, #0x60]
 130ca3c: 900143db     	adrp	x27, 0x3b84000 <crypto/internal/fips140deps/cpu.S390XHasSHA3>
 130ca40: b94a7363     	ldr	w3, [x27, #0xa70]
 130ca44: 34000083     	cbz	w3, 0x130ca54 <main.main+0x634>
 130ca48: f9402c03     	ldr	x3, [x0, #0x58]
 130ca4c: 97c5eefd     	bl	0x488640 <runtime.gcWriteBarrier1>
 130ca50: f9000323     	str	x3, [x25]
 130ca54: 90002bc3     	adrp	x3, 0x1884000 <go:string.*+0x4508>
 130ca58: 9102dc63     	add	x3, x3, #0xb7
 130ca5c: f9002c03     	str	x3, [x0, #0x58]
 130ca60: f94103e2     	ldr	x2, [sp, #0x200]
 130ca64: aa0003e3     	mov	x3, x0
 130ca68: f90093e3     	str	x3, [sp, #0x120]
 130ca6c: f9400040     	ldr	x0, [x2]
 130ca70: 97e30f50     	bl	0xbd07b0 <github.com/coroot/coroot/config.(*Config).GetGlobalPrometheus>
 130ca74: f900e3e0     	str	x0, [sp, #0x1c0]
 130ca78: 9112e3fb     	add	x27, sp, #0x4b8
 130ca7c: a9007f7f     	stp	xzr, xzr, [x27]
 130ca80: 911323fb     	add	x27, sp, #0x4c8
 130ca84: a9007f7f     	stp	xzr, xzr, [x27]
 130ca88: f94103e1     	ldr	x1, [sp, #0x200]
 130ca8c: f9400021     	ldr	x1, [x1]
 130ca90: a9438821     	ldp	x1, x2, [x1, #0x38]
 130ca94: 9112e3fb     	add	x27, sp, #0x4b8
 130ca98: a9000b61     	stp	x1, x2, [x27]
 130ca9c: b0002ba1     	adrp	x1, 0x1881000 <go:string.*+0x1508>
 130caa0: 91039421     	add	x1, x1, #0xe5
 130caa4: d28000a2     	mov	x2, #0x5                // =5
 130caa8: 911323fb     	add	x27, sp, #0x4c8
 130caac: a9000b61     	stp	x1, x2, [x27]
 130cab0: 9112e3e0     	add	x0, sp, #0x4b8
 130cab4: b27f03e1     	orr	x1, xzr, #0x2
 130cab8: aa0103e2     	mov	x2, x1
 130cabc: 97c6e5a5     	bl	0x4c6150 <path.Join>
 130cac0: f9010be0     	str	x0, [sp, #0x210]
 130cac4: f90067e1     	str	x1, [sp, #0xc8]
 130cac8: d0001ca0     	adrp	x0, 0x16a2000 <type:*+0x26c180>
 130cacc: 91248000     	add	x0, x0, #0x920
 130cad0: 97c442a0     	bl	0x41d550 <runtime.newobject>
 130cad4: f94103e1     	ldr	x1, [sp, #0x200]
 130cad8: f9400022     	ldr	x2, [x1]
 130cadc: f9403442     	ldr	x2, [x2, #0x68]
 130cae0: f9000402     	str	x2, [x0, #0x8]
 130cae4: f9400021     	ldr	x1, [x1]
 130cae8: f9403821     	ldr	x1, [x1, #0x70]
 130caec: f9000001     	str	x1, [x0]
 130caf0: f940f3e1     	ldr	x1, [sp, #0x1e0]
 130caf4: f9400024     	ldr	x4, [x1]
 130caf8: f94067e1     	ldr	x1, [sp, #0xc8]
 130cafc: aa0003e2     	mov	x2, x0
 130cb00: aa1f03e3     	mov	x3, xzr
 130cb04: f940e3e5     	ldr	x5, [sp, #0x1c0]
 130cb08: f94093e6     	ldr	x6, [sp, #0x120]
 130cb0c: f9410be0     	ldr	x0, [sp, #0x210]
 130cb10: 97ed2be8     	bl	0xe57ab0 <github.com/coroot/coroot/cache.NewCache>
 130cb14: f900bbe0     	str	x0, [sp, #0x170]
 130cb18: b4000241     	cbz	x1, 0x130cb60 <main.main+0x740>
 130cb1c: 910ea3fb     	add	x27, sp, #0x3a8
 130cb20: a9007f7f     	stp	xzr, xzr, [x27]
 130cb24: b4000041     	cbz	x1, 0x130cb2c <main.main+0x70c>
 130cb28: f9400421     	ldr	x1, [x1, #0x8]
 130cb2c: 910ea3fb     	add	x27, sp, #0x3a8
 130cb30: a9000b61     	stp	x1, x2, [x27]
 130cb34: b24003e5     	orr	x5, xzr, #0x1
 130cb38: 900143c6     	adrp	x6, 0x3b84000 <crypto/internal/fips140deps/cpu.S390XHasSHA3>
 130cb3c: 910080c6     	add	x6, x6, #0x20
 130cb40: 889ffcc5     	stlr	w5, [x6]
 130cb44: 90014220     	adrp	x0, 0x3b50000 <github.com/gorilla/websocket.nilDialer+0x60>
 130cb48: 91178000     	add	x0, x0, #0x5e0
 130cb4c: b24007e1     	orr	x1, xzr, #0x3
 130cb50: 910ea3e2     	add	x2, sp, #0x3a8
 130cb54: b24003e3     	orr	x3, xzr, #0x1
 130cb58: aa0303e4     	mov	x4, x3
 130cb5c: 97d63fbd     	bl	0x89ca50 <k8s.io/klog.(*loggingT).println>
 130cb60: f94103e4     	ldr	x4, [sp, #0x200]
 130cb64: f9400084     	ldr	x4, [x4]
 130cb68: a9450881     	ldp	x1, x2, [x4, #0x50]
 130cb6c: 39412080     	ldrb	w0, [x4, #0x48]
 130cb70: f9403083     	ldr	x3, [x4, #0x60]
 130cb74: 97f01197     	bl	0xf111d0 <github.com/coroot/coroot/grpc.NewServer>
 130cb78: f900dfe0     	str	x0, [sp, #0x1b8]
 130cb7c: b4000361     	cbz	x1, 0x130cbe8 <main.main+0x7c8>
 130cb80: 910e23fb     	add	x27, sp, #0x388
 130cb84: a9007f7f     	stp	xzr, xzr, [x27]
 130cb88: 910e63fb     	add	x27, sp, #0x398
 130cb8c: a9007f7f     	stp	xzr, xzr, [x27]
 130cb90: f0001165     	adrp	x5, 0x153b000 <type:*+0x105180>
 130cb94: 911600a5     	add	x5, x5, #0x580
 130cb98: b000d6e6     	adrp	x6, 0x2de9000 <$f64.5e50000000000000>
 130cb9c: 910360c6     	add	x6, x6, #0xd8
 130cba0: 910e23fb     	add	x27, sp, #0x388
 130cba4: a9001b65     	stp	x5, x6, [x27]
 130cba8: b4000041     	cbz	x1, 0x130cbb0 <main.main+0x790>
 130cbac: f9400421     	ldr	x1, [x1, #0x8]
 130cbb0: 910e63fb     	add	x27, sp, #0x398
 130cbb4: a9000b61     	stp	x1, x2, [x27]
 130cbb8: b24003e5     	orr	x5, xzr, #0x1
 130cbbc: 900143c6     	adrp	x6, 0x3b84000 <crypto/internal/fips140deps/cpu.S390XHasSHA3>
 130cbc0: 910080c6     	add	x6, x6, #0x20
 130cbc4: 889ffcc5     	stlr	w5, [x6]
 130cbc8: 90014220     	adrp	x0, 0x3b50000 <github.com/gorilla/websocket.nilDialer+0x60>
 130cbcc: 91178000     	add	x0, x0, #0x5e0
 130cbd0: b24007e1     	orr	x1, xzr, #0x3
 130cbd4: 910e23e2     	add	x2, sp, #0x388
 130cbd8: b27f03e3     	orr	x3, xzr, #0x2
 130cbdc: aa0303e4     	mov	x4, x3
 130cbe0: 97d63f9c     	bl	0x89ca50 <k8s.io/klog.(*loggingT).println>
 130cbe4: f940dfe0     	ldr	x0, [sp, #0x1b8]
 130cbe8: f94103e9     	ldr	x9, [sp, #0x200]
 130cbec: f9400129     	ldr	x9, [x9]
 130cbf0: a947852a     	ldp	x10, x1, [x9, #0x78]
 130cbf4: a9488d22     	ldp	x2, x3, [x9, #0x88]
 130cbf8: f940f3e9     	ldr	x9, [sp, #0x1e0]
 130cbfc: f9400124     	ldr	x4, [x9]
 130cc00: f940bbe5     	ldr	x5, [sp, #0x170]
 130cc04: f94093e6     	ldr	x6, [sp, #0x120]
 130cc08: f940e3e7     	ldr	x7, [sp, #0x1c0]
 130cc0c: aa0003e8     	mov	x8, x0
 130cc10: aa0a03e0     	mov	x0, x10
 130cc14: 97f29073     	bl	0xfb0de0 <github.com/coroot/coroot/collector.New>
 130cc18: f900f7e0     	str	x0, [sp, #0x1e8]
 130cc1c: b0001e00     	adrp	x0, 0x16cd000 <type:*+0x297180>
 130cc20: 91240000     	add	x0, x0, #0x900
 130cc24: 97c4424b     	bl	0x41d550 <runtime.newobject>
 130cc28: d0000049     	adrp	x9, 0x1316000 <main.main.(*Api).Auth.func9+0xb0>
 130cc2c: 91130129     	add	x9, x9, #0x4c0
 130cc30: f9000009     	str	x9, [x0]
 130cc34: 900143db     	adrp	x27, 0x3b84000 <crypto/internal/fips140deps/cpu.S390XHasSHA3>
 130cc38: b94a7369     	ldr	w9, [x27, #0xa70]
 130cc3c: 35000089     	cbnz	w9, 0x130cc4c <main.main+0x82c>
 130cc40: f940dfe1     	ldr	x1, [sp, #0x1b8]
 130cc44: f940f7e2     	ldr	x2, [sp, #0x1e8]
 130cc48: 14000005     	b	0x130cc5c <main.main+0x83c>
 130cc4c: 97c5ee81     	bl	0x488650 <runtime.gcWriteBarrier2>
 130cc50: f940dfe1     	ldr	x1, [sp, #0x1b8]
 130cc54: f940f7e2     	ldr	x2, [sp, #0x1e8]
 130cc58: a9000b21     	stp	x1, x2, [x25]
 130cc5c: a9008801     	stp	x1, x2, [x0, #0x8]
 130cc60: 97c52224     	bl	0x4554f0 <runtime.newproc>
 130cc64: 9112e3fb     	add	x27, sp, #0x4b8
 130cc68: a9007f7f     	stp	xzr, xzr, [x27]
 130cc6c: 911323fb     	add	x27, sp, #0x4c8
 130cc70: a9007f7f     	stp	xzr, xzr, [x27]
 130cc74: f94103e1     	ldr	x1, [sp, #0x200]
 130cc78: f9400021     	ldr	x1, [x1]
 130cc7c: a9438821     	ldp	x1, x2, [x1, #0x38]
 130cc80: 9112e3fb     	add	x27, sp, #0x4b8
 130cc84: a9000b61     	stp	x1, x2, [x27]
 130cc88: 90002c01     	adrp	x1, 0x188c000 <go:string.*+0xc508>
 130cc8c: 9124c021     	add	x1, x1, #0x930
 130cc90: d28001a2     	mov	x2, #0xd                // =13
 130cc94: 911323fb     	add	x27, sp, #0x4c8
 130cc98: a9000b61     	stp	x1, x2, [x27]
 130cc9c: 9112e3e0     	add	x0, sp, #0x4b8
 130cca0: b27f03e1     	orr	x1, xzr, #0x2
 130cca4: aa0103e2     	mov	x2, x1
 130cca8: 97c6e52a     	bl	0x4c6150 <path.Join>
 130ccac: 97ebdf3d     	bl	0xe049a0 <github.com/coroot/coroot/cloud-pricing.NewManager>
 130ccb0: f900bfe0     	str	x0, [sp, #0x178]
 130ccb4: b4000261     	cbz	x1, 0x130cd00 <main.main+0x8e0>
 130ccb8: 910de3fb     	add	x27, sp, #0x378
 130ccbc: a9007f7f     	stp	xzr, xzr, [x27]
 130ccc0: b4000041     	cbz	x1, 0x130ccc8 <main.main+0x8a8>
 130ccc4: f9400421     	ldr	x1, [x1, #0x8]
 130ccc8: 910de3fb     	add	x27, sp, #0x378
 130cccc: a9000b61     	stp	x1, x2, [x27]
 130ccd0: b24003e5     	orr	x5, xzr, #0x1
 130ccd4: 900143c6     	adrp	x6, 0x3b84000 <crypto/internal/fips140deps/cpu.S390XHasSHA3>
 130ccd8: 910080c6     	add	x6, x6, #0x20
 130ccdc: 889ffcc5     	stlr	w5, [x6]
 130cce0: 90014220     	adrp	x0, 0x3b50000 <github.com/gorilla/websocket.nilDialer+0x60>
 130cce4: 91178000     	add	x0, x0, #0x5e0
 130cce8: b24007e1     	orr	x1, xzr, #0x3
 130ccec: 910de3e2     	add	x2, sp, #0x378
 130ccf0: b24003e3     	orr	x3, xzr, #0x1
 130ccf4: aa0303e4     	mov	x4, x3
 130ccf8: 97d63f56     	bl	0x89ca50 <k8s.io/klog.(*loggingT).println>
 130ccfc: f940bfe0     	ldr	x0, [sp, #0x178]
 130cd00: f94103e9     	ldr	x9, [sp, #0x200]
 130cd04: a9408529     	ldp	x9, x1, [x9, #0x8]
 130cd08: f940ebe2     	ldr	x2, [sp, #0x1d0]
 130cd0c: f9405be3     	ldr	x3, [sp, #0xb0]
 130cd10: f940d7e4     	ldr	x4, [sp, #0x1a8]
 130cd14: f9404fe5     	ldr	x5, [sp, #0x98]
 130cd18: f940f3e6     	ldr	x6, [sp, #0x1e0]
 130cd1c: f940bbe7     	ldr	x7, [sp, #0x170]
 130cd20: aa0003e8     	mov	x8, x0
 130cd24: aa0903e0     	mov	x0, x9
 130cd28: 97ff478e     	bl	0x12deb60 <github.com/coroot/enterprise/licenses.NewManager>
 130cd2c: f900cfe0     	str	x0, [sp, #0x198]
 130cd30: b00139bb     	adrp	x27, 0x3a41000 <github.com/mattn/go-sqlite3._cgo_007649fec91e_Cfunc_sqlite3_value_double>
 130cd34: 9115c37b     	add	x27, x27, #0x570
 130cd38: a9401363     	ldp	x3, x4, [x27]
 130cd3c: f94103e9     	ldr	x9, [sp, #0x200]
 130cd40: f9400129     	ldr	x9, [x9]
 130cd44: 3943a920     	ldrb	w0, [x9, #0xea]
 130cd48: f940f3e9     	ldr	x9, [sp, #0x1e0]
 130cd4c: f9400127     	ldr	x7, [x9]
 130cd50: f940d7e1     	ldr	x1, [sp, #0x1a8]
 130cd54: f9404fe2     	ldr	x2, [sp, #0x98]
 130cd58: 90002be5     	adrp	x5, 0x1888000 <go:string.*+0x8508>
 130cd5c: 911b28a5     	add	x5, x5, #0x6ca
 130cd60: d2800146     	mov	x6, #0xa                // =10
 130cd64: f940bbe8     	ldr	x8, [sp, #0x170]
 130cd68: f940bfe9     	ldr	x9, [sp, #0x178]
 130cd6c: f94093ea     	ldr	x10, [sp, #0x120]
 130cd70: 97f356f8     	bl	0xfe2950 <github.com/coroot/coroot/stats.NewCollector>
 130cd74: f9009fe0     	str	x0, [sp, #0x138]
 130cd78: f94103e9     	ldr	x9, [sp, #0x200]
 130cd7c: f9400129     	ldr	x9, [x9]
 130cd80: f940bbe1     	ldr	x1, [sp, #0x170]
 130cd84: f940f3e2     	ldr	x2, [sp, #0x1e0]
 130cd88: f940f7e3     	ldr	x3, [sp, #0x1e8]
 130cd8c: aa0003e4     	mov	x4, x0
 130cd90: f940bfe5     	ldr	x5, [sp, #0x178]
 130cd94: f940cfe6     	ldr	x6, [sp, #0x198]
 130cd98: f94093e7     	ldr	x7, [sp, #0x120]
 130cd9c: f940e3e8     	ldr	x8, [sp, #0x1c0]
 130cda0: f9405bea     	ldr	x10, [sp, #0xb0]
 130cda4: f940d7eb     	ldr	x11, [sp, #0x1a8]
 130cda8: f9404fec     	ldr	x12, [sp, #0x98]
 130cdac: aa0903e0     	mov	x0, x9
 130cdb0: f940ebe9     	ldr	x9, [sp, #0x1d0]
 130cdb4: 97ffcf2f     	bl	0x1300a70 <github.com/coroot/enterprise/api.NewApi>
 130cdb8: f9012fe0     	str	x0, [sp, #0x258]
 130cdbc: f9400400     	ldr	x0, [x0, #0x8]
 130cdc0: f94103e9     	ldr	x9, [sp, #0x200]
 130cdc4: f9400129     	ldr	x9, [x9]
 130cdc8: a94b0921     	ldp	x1, x2, [x9, #0xb0]
 130cdcc: a94c1123     	ldp	x3, x4, [x9, #0xc0]
 130cdd0: 97f4ebb4     	bl	0x1047ca0 <github.com/coroot/coroot/api.(*Api).AuthInit>
 130cdd4: b4000240     	cbz	x0, 0x130ce1c <main.main+0x9fc>
 130cdd8: 910da3fb     	add	x27, sp, #0x368
 130cddc: a9007f7f     	stp	xzr, xzr, [x27]
 130cde0: b4000040     	cbz	x0, 0x130cde8 <main.main+0x9c8>
 130cde4: f9400400     	ldr	x0, [x0, #0x8]
 130cde8: 910da3fb     	add	x27, sp, #0x368
 130cdec: a9000760     	stp	x0, x1, [x27]
 130cdf0: b24003e5     	orr	x5, xzr, #0x1
 130cdf4: 900143c6     	adrp	x6, 0x3b84000 <crypto/internal/fips140deps/cpu.S390XHasSHA3>
 130cdf8: 910080c6     	add	x6, x6, #0x20
 130cdfc: 889ffcc5     	stlr	w5, [x6]
 130ce00: 90014220     	adrp	x0, 0x3b50000 <github.com/gorilla/websocket.nilDialer+0x60>
 130ce04: 91178000     	add	x0, x0, #0x5e0
 130ce08: b24007e1     	orr	x1, xzr, #0x3
 130ce0c: 910da3e2     	add	x2, sp, #0x368
 130ce10: b24003e3     	orr	x3, xzr, #0x1
 130ce14: aa0303e4     	mov	x4, x3
 130ce18: 97d63f0e     	bl	0x89ca50 <k8s.io/klog.(*loggingT).println>
 130ce1c: f940f3e1     	ldr	x1, [sp, #0x1e0]
 130ce20: f9400021     	ldr	x1, [x1]
 130ce24: f900efe1     	str	x1, [sp, #0x1d8]
 130ce28: f0001a80     	adrp	x0, 0x165f000 <type:*+0x229180>
 130ce2c: 91048000     	add	x0, x0, #0x120
 130ce30: 97c441c8     	bl	0x41d550 <runtime.newobject>
 130ce34: d0000041     	adrp	x1, 0x1316000 <main.main.(*Api).Auth.func9+0xb0>
 130ce38: 91290021     	add	x1, x1, #0xa40
 130ce3c: f9000001     	str	x1, [x0]
 130ce40: 900143db     	adrp	x27, 0x3b84000 <crypto/internal/fips140deps/cpu.S390XHasSHA3>
 130ce44: b94a7361     	ldr	w1, [x27, #0xa70]
 130ce48: 35000061     	cbnz	w1, 0x130ce54 <main.main+0xa34>
 130ce4c: f9412fe1     	ldr	x1, [sp, #0x258]
 130ce50: 14000004     	b	0x130ce60 <main.main+0xa40>
 130ce54: 97c5edfb     	bl	0x488640 <runtime.gcWriteBarrier1>
 130ce58: f9412fe1     	ldr	x1, [sp, #0x258]
 130ce5c: f9000321     	str	x1, [x25]
 130ce60: f9014fe0     	str	x0, [sp, #0x298]
 130ce64: f9000401     	str	x1, [x0, #0x8]
 130ce68: f940efe0     	ldr	x0, [sp, #0x1d8]
 130ce6c: 97e5865d     	bl	0xc6e7e0 <github.com/coroot/coroot/notifications.NewIncidentNotifier>
 130ce70: f9014be0     	str	x0, [sp, #0x290]
 130ce74: 90001ea0     	adrp	x0, 0x16e0000 <type:*+0x2aa180>
 130ce78: 91078000     	add	x0, x0, #0x1e0
 130ce7c: 97c441b5     	bl	0x41d550 <runtime.newobject>
 130ce80: 900143db     	adrp	x27, 0x3b84000 <crypto/internal/fips140deps/cpu.S390XHasSHA3>
 130ce84: b94a7361     	ldr	w1, [x27, #0xa70]
 130ce88: 350000a1     	cbnz	w1, 0x130ce9c <main.main+0xa7c>
 130ce8c: f940efe1     	ldr	x1, [sp, #0x1d8]
 130ce90: f9414be2     	ldr	x2, [sp, #0x290]
 130ce94: f9414fe3     	ldr	x3, [sp, #0x298]
 130ce98: 14000007     	b	0x130ceb4 <main.main+0xa94>
 130ce9c: 97c5edf1     	bl	0x488660 <runtime.gcWriteBarrier3>
 130cea0: f940efe1     	ldr	x1, [sp, #0x1d8]
 130cea4: f9000321     	str	x1, [x25]
 130cea8: f9414be2     	ldr	x2, [sp, #0x290]
 130ceac: f9414fe3     	ldr	x3, [sp, #0x298]
 130ceb0: a9008f22     	stp	x2, x3, [x25, #0x8]
 130ceb4: f9008fe0     	str	x0, [sp, #0x118]
 130ceb8: f9000001     	str	x1, [x0]
 130cebc: a9008803     	stp	x3, x2, [x0, #0x8]
 130cec0: d503201f     	nop
 130cec4: b0001980     	adrp	x0, 0x163d000 <type:*+0x207180>
 130cec8: 91140000     	add	x0, x0, #0x500
 130cecc: 97c441a1     	bl	0x41d550 <runtime.newobject>
 130ced0: 900143db     	adrp	x27, 0x3b84000 <crypto/internal/fips140deps/cpu.S390XHasSHA3>
 130ced4: b94a7361     	ldr	w1, [x27, #0xa70]
 130ced8: 35000061     	cbnz	w1, 0x130cee4 <main.main+0xac4>
 130cedc: f940f3e1     	ldr	x1, [sp, #0x1e0]
 130cee0: 14000004     	b	0x130cef0 <main.main+0xad0>
 130cee4: 97c5edd7     	bl	0x488640 <runtime.gcWriteBarrier1>
 130cee8: f940f3e1     	ldr	x1, [sp, #0x1e0]
 130ceec: f9000321     	str	x1, [x25]
 130cef0: f9008be0     	str	x0, [sp, #0x110]
 130cef4: f9000001     	str	x1, [x0]
 130cef8: d503201f     	nop
 130cefc: b0001980     	adrp	x0, 0x163d000 <type:*+0x207180>
 130cf00: 91120000     	add	x0, x0, #0x480
 130cf04: 97c44193     	bl	0x41d550 <runtime.newobject>
 130cf08: 900143db     	adrp	x27, 0x3b84000 <crypto/internal/fips140deps/cpu.S390XHasSHA3>
 130cf0c: b94a7361     	ldr	w1, [x27, #0xa70]
 130cf10: 35000061     	cbnz	w1, 0x130cf1c <main.main+0xafc>
 130cf14: f940f3ee     	ldr	x14, [sp, #0x1e0]
 130cf18: 14000004     	b	0x130cf28 <main.main+0xb08>
 130cf1c: 97c5edc9     	bl	0x488640 <runtime.gcWriteBarrier1>
 130cf20: f940f3ee     	ldr	x14, [sp, #0x1e0]
 130cf24: f900032e     	str	x14, [x25]
 130cf28: f900000e     	str	x14, [x0]
 130cf2c: f94001ce     	ldr	x14, [x14]
 130cf30: f94103ef     	ldr	x15, [sp, #0x200]
 130cf34: f94001ef     	ldr	x15, [x15]
 130cf38: 3943a1f0     	ldrb	w16, [x15, #0xe8]
 130cf3c: d2400204     	eor	x4, x16, #0x1
 130cf40: a94fa5e8     	ldp	x8, x9, [x15, #0xf8]
 130cf44: 3943c1e7     	ldrb	w7, [x15, #0xf0]
 130cf48: f940bbe1     	ldr	x1, [sp, #0x170]
 130cf4c: f940bfe2     	ldr	x2, [sp, #0x178]
 130cf50: f9408fe3     	ldr	x3, [sp, #0x118]
 130cf54: f94093e5     	ldr	x5, [sp, #0x120]
 130cf58: f940e3e6     	ldr	x6, [sp, #0x1c0]
 130cf5c: 9000d78a     	adrp	x10, 0x2dfc000 <go:itab.*go.opentelemetry.io/otel/internal/global.aiCounter,go.opentelemetry.io/otel/internal/global.delegatedInstrument>
 130cf60: 9121c14a     	add	x10, x10, #0x870
 130cf64: f9408beb     	ldr	x11, [sp, #0x110]
 130cf68: 9000d78c     	adrp	x12, 0x2dfc000 <go:itab.*go.opentelemetry.io/otel/internal/global.aiCounter,go.opentelemetry.io/otel/internal/global.delegatedInstrument>
 130cf6c: 9122618c     	add	x12, x12, #0x898
 130cf70: aa0003ed     	mov	x13, x0
 130cf74: aa0e03e0     	mov	x0, x14
 130cf78: 97f5b852     	bl	0x107b0c0 <github.com/coroot/coroot/watchers.Start>
 130cf7c: d503201f     	nop
 130cf80: 97c5c420     	bl	0x47e000 <runtime.makemap_small>
 130cf84: f90147e0     	str	x0, [sp, #0x288]
 130cf88: d0002560     	adrp	x0, 0x17ba000 <type:*+0x384180>
 130cf8c: 911f8000     	add	x0, x0, #0x7e0
 130cf90: 97c44170     	bl	0x41d550 <runtime.newobject>
 130cf94: 900143db     	adrp	x27, 0x3b84000 <crypto/internal/fips140deps/cpu.S390XHasSHA3>
 130cf98: b94a736e     	ldr	w14, [x27, #0xa70]
 130cf9c: 3500006e     	cbnz	w14, 0x130cfa8 <main.main+0xb88>
 130cfa0: f94147e1     	ldr	x1, [sp, #0x288]
 130cfa4: 14000004     	b	0x130cfb4 <main.main+0xb94>
 130cfa8: 97c5eda6     	bl	0x488640 <runtime.gcWriteBarrier1>
 130cfac: f94147e1     	ldr	x1, [sp, #0x288]
 130cfb0: f9000321     	str	x1, [x25]
 130cfb4: f90087e0     	str	x0, [sp, #0x108]
 130cfb8: f9001c01     	str	x1, [x0, #0x38]
 130cfbc: f901b3ff     	str	xzr, [sp, #0x360]
 130cfc0: f0001a80     	adrp	x0, 0x165f000 <type:*+0x229180>
 130cfc4: 91088000     	add	x0, x0, #0x220
 130cfc8: 97c44162     	bl	0x41d550 <runtime.newobject>
 130cfcc: d0000041     	adrp	x1, 0x1316000 <main.main.(*Api).Auth.func9+0xb0>
 130cfd0: 912b8021     	add	x1, x1, #0xae0
 130cfd4: f9000001     	str	x1, [x0]
 130cfd8: 900143db     	adrp	x27, 0x3b84000 <crypto/internal/fips140deps/cpu.S390XHasSHA3>
 130cfdc: b94a7361     	ldr	w1, [x27, #0xa70]
 130cfe0: 35000061     	cbnz	w1, 0x130cfec <main.main+0xbcc>
 130cfe4: f9409fe5     	ldr	x5, [sp, #0x138]
 130cfe8: 14000004     	b	0x130cff8 <main.main+0xbd8>
 130cfec: 97c5ed95     	bl	0x488640 <runtime.gcWriteBarrier1>
 130cff0: f9409fe5     	ldr	x5, [sp, #0x138]
 130cff4: f9000325     	str	x5, [x25]
 130cff8: f9000405     	str	x5, [x0, #0x8]
 130cffc: f901b3e0     	str	x0, [sp, #0x360]
 130d000: f94087e0     	ldr	x0, [sp, #0x108]
 130d004: aa1f03e1     	mov	x1, xzr
 130d008: 1400002e     	b	0x130d0c0 <main.main+0xca0>
 130d00c: f940f3e0     	ldr	x0, [sp, #0x1e0]
 130d010: 940025ec     	bl	0x13167c0 <main.setAdminPassword>
 130d014: b4000300     	cbz	x0, 0x130d074 <main.main+0xc54>
 130d018: 910fa3fb     	add	x27, sp, #0x3e8
 130d01c: a9007f7f     	stp	xzr, xzr, [x27]
 130d020: 910fe3fb     	add	x27, sp, #0x3f8
 130d024: a9007f7f     	stp	xzr, xzr, [x27]
 130d028: d0001165     	adrp	x5, 0x153b000 <type:*+0x105180>
 130d02c: 911600a5     	add	x5, x5, #0x580
 130d030: 9000d6e6     	adrp	x6, 0x2de9000 <$f64.5e50000000000000>
 130d034: 9102e0c6     	add	x6, x6, #0xb8
 130d038: 910fa3fb     	add	x27, sp, #0x3e8
 130d03c: a9001b65     	stp	x5, x6, [x27]
 130d040: b4000040     	cbz	x0, 0x130d048 <main.main+0xc28>
 130d044: f9400400     	ldr	x0, [x0, #0x8]
 130d048: 910fe3fb     	add	x27, sp, #0x3f8
 130d04c: a9000760     	stp	x0, x1, [x27]
 130d050: 900141fb     	adrp	x27, 0x3b49000 <crypto/internal/fips140/nistec.p256PrecomputedEmbed+0x14b80>
 130d054: f946d361     	ldr	x1, [x27, #0xda0]
 130d058: f000d720     	adrp	x0, 0x2df4000 <github.com/openai/openai-go/v3/packages/param..dict.MarshalObject[github.com/openai/openai-go/v3/responses.ResponseInputItemMcpApprovalRequestParam]>
 130d05c: 91356000     	add	x0, x0, #0xd58
 130d060: 910fa3e2     	add	x2, sp, #0x3e8
 130d064: b27f03e3     	orr	x3, xzr, #0x2
 130d068: aa0303e4     	mov	x4, x3
 130d06c: 97c82105     	bl	0x515480 <fmt.Fprintln>
 130d070: 1400000f     	b	0x130d0ac <main.main+0xc8c>
 130d074: d0001165     	adrp	x5, 0x153b000 <type:*+0x105180>
 130d078: 911600a5     	add	x5, x5, #0x580
 130d07c: 9000d6e6     	adrp	x6, 0x2de9000 <$f64.5e50000000000000>
 130d080: 910320c6     	add	x6, x6, #0xc8
 130d084: 910f63fb     	add	x27, sp, #0x3d8
 130d088: a9001b65     	stp	x5, x6, [x27]
 130d08c: 900141fb     	adrp	x27, 0x3b49000 <crypto/internal/fips140/nistec.p256PrecomputedEmbed+0x14b80>
 130d090: f946d361     	ldr	x1, [x27, #0xda0]
 130d094: f000d720     	adrp	x0, 0x2df4000 <github.com/openai/openai-go/v3/packages/param..dict.MarshalObject[github.com/openai/openai-go/v3/responses.ResponseInputItemMcpApprovalRequestParam]>
 130d098: 91356000     	add	x0, x0, #0xd58
 130d09c: 910f63e2     	add	x2, sp, #0x3d8
 130d0a0: b24003e3     	orr	x3, xzr, #0x1
 130d0a4: aa0303e4     	mov	x4, x3
 130d0a8: 97c820f6     	bl	0x515480 <fmt.Fprintln>
 130d0ac: a97ffbfd     	ldp	x29, x30, [sp, #-0x8]
 130d0b0: 9113c3ff     	add	sp, sp, #0x4f0
 130d0b4: d65f03c0     	ret
 130d0b8: f90004c7     	str	x7, [x6, #0x8]
 130d0bc: b24003e1     	orr	x1, xzr, #0x1
 130d0c0: f100003f     	cmp	x1, #0x0
 130d0c4: 5400050c     	b.gt	0x130d164 <main.main+0xd44>
 130d0c8: a9449c06     	ldp	x6, x7, [x0, #0x48]
 130d0cc: f9402c02     	ldr	x2, [x0, #0x58]
 130d0d0: 910004e1     	add	x1, x7, #0x1
 130d0d4: f941b3e7     	ldr	x7, [sp, #0x360]
 130d0d8: eb01005f     	cmp	x2, x1
 130d0dc: 54000282     	b.hs	0x130d12c <main.main+0xd0c>
 130d0e0: f900e7e7     	str	x7, [sp, #0x1c8]
 130d0e4: aa0603e0     	mov	x0, x6
 130d0e8: b24003e3     	orr	x3, xzr, #0x1
 130d0ec: b0001744     	adrp	x4, 0x15f6000 <type:*+0x1c0180>
 130d0f0: 913a0084     	add	x4, x4, #0xe80
 130d0f4: 97c5d62f     	bl	0x4829b0 <runtime.growslice>
 130d0f8: f94087e5     	ldr	x5, [sp, #0x108]
 130d0fc: f9002ca2     	str	x2, [x5, #0x58]
 130d100: f00143bb     	adrp	x27, 0x3b84000 <crypto/internal/fips140deps/cpu.S390XHasSHA3>
 130d104: b94a7366     	ldr	w6, [x27, #0xa70]
 130d108: 34000086     	cbz	w6, 0x130d118 <main.main+0xcf8>
 130d10c: f94024a6     	ldr	x6, [x5, #0x48]
 130d110: 97c5ed50     	bl	0x488650 <runtime.gcWriteBarrier2>
 130d114: a9001b20     	stp	x0, x6, [x25]
 130d118: f90024a0     	str	x0, [x5, #0x48]
 130d11c: f9409fe5     	ldr	x5, [sp, #0x138]
 130d120: f940e7e7     	ldr	x7, [sp, #0x1c8]
 130d124: aa0003e6     	mov	x6, x0
 130d128: f94087e0     	ldr	x0, [sp, #0x108]
 130d12c: f9002801     	str	x1, [x0, #0x50]
 130d130: d1000428     	sub	x8, x1, #0x1
 130d134: d37ced09     	lsl	x9, x8, #4
 130d138: f000d72a     	adrp	x10, 0x2df4000 <github.com/openai/openai-go/v3/packages/param..dict.MarshalObject[github.com/openai/openai-go/v3/responses.ResponseInputItemMcpApprovalRequestParam]>
 130d13c: 9136614a     	add	x10, x10, #0xd98
 130d140: f82968ca     	str	x10, [x6, x9]
 130d144: 8b0810c6     	add	x6, x6, x8, lsl #4
 130d148: f00143bb     	adrp	x27, 0x3b84000 <crypto/internal/fips140deps/cpu.S390XHasSHA3>
 130d14c: b94a7368     	ldr	w8, [x27, #0xa70]
 130d150: 34fffb48     	cbz	w8, 0x130d0b8 <main.main+0xc98>
 130d154: f94004c8     	ldr	x8, [x6, #0x8]
 130d158: 97c5ed3e     	bl	0x488650 <runtime.gcWriteBarrier2>
 130d15c: a9002327     	stp	x7, x8, [x25]
 130d160: 17ffffd6     	b	0x130d0b8 <main.main+0xc98>
 130d164: f0002be1     	adrp	x1, 0x188c000 <go:string.*+0xc508>
 130d168: 9124f421     	add	x1, x1, #0x93d
 130d16c: d28001a2     	mov	x2, #0xd                // =13
 130d170: 97f2d730     	bl	0xfc2e30 <github.com/gorilla/mux.(*Router).PathPrefix>
 130d174: f9401403     	ldr	x3, [x0, #0x28]
 130d178: b50001a3     	cbnz	x3, 0x130d1ac <main.main+0xd8c>
 130d17c: f001399b     	adrp	x27, 0x3a40000 <write@GLIBC_2.17+0x3a40000>
 130d180: f9422764     	ldr	x4, [x27, #0x448]
 130d184: f000d725     	adrp	x5, 0x2df4000 <github.com/openai/openai-go/v3/packages/param..dict.MarshalObject[github.com/openai/openai-go/v3/responses.ResponseInputItemMcpApprovalRequestParam]>
 130d188: 9132e0a5     	add	x5, x5, #0xcb8
 130d18c: f9000005     	str	x5, [x0]
 130d190: f00143bb     	adrp	x27, 0x3b84000 <crypto/internal/fips140deps/cpu.S390XHasSHA3>
 130d194: b94a7365     	ldr	w5, [x27, #0xa70]
 130d198: 34000085     	cbz	w5, 0x130d1a8 <main.main+0xd88>
 130d19c: f9400405     	ldr	x5, [x0, #0x8]
 130d1a0: 97c5ed2c     	bl	0x488650 <runtime.gcWriteBarrier2>
 130d1a4: a9001724     	stp	x4, x5, [x25]
 130d1a8: f9000404     	str	x4, [x0, #0x8]
 130d1ac: f94087e0     	ldr	x0, [sp, #0x108]
 130d1b0: f0002ba1     	adrp	x1, 0x1884000 <go:string.*+0x4508>
 130d1b4: 9102f821     	add	x1, x1, #0xbe
 130d1b8: b2400be2     	orr	x2, xzr, #0x7
 130d1bc: d000c743     	adrp	x3, 0x2bf7000 <go:func.*+0x618>
 130d1c0: 913ea063     	add	x3, x3, #0xfa8
 130d1c4: 97f2d3eb     	bl	0xfc2170 <github.com/gorilla/mux.(*Router).HandleFunc>
 130d1c8: f90143e0     	str	x0, [sp, #0x280]
 130d1cc: b00012e0     	adrp	x0, 0x156a000 <type:*+0x134180>
 130d1d0: 91010000     	add	x0, x0, #0x40
 130d1d4: 97c440df     	bl	0x41d550 <runtime.newobject>
 130d1d8: d0002b84     	adrp	x4, 0x187f000 <type:*+0x449180>
 130d1dc: 913b8484     	add	x4, x4, #0xee1
 130d1e0: b24007e5     	orr	x5, xzr, #0x3
 130d1e4: a9001404     	stp	x4, x5, [x0]
 130d1e8: aa0003e1     	mov	x1, x0
 130d1ec: b24003e2     	orr	x2, xzr, #0x1
 130d1f0: aa0203e3     	mov	x3, x2
 130d1f4: f94143e0     	ldr	x0, [sp, #0x280]
 130d1f8: 97f2e7be     	bl	0xfc70f0 <github.com/gorilla/mux.(*Route).Methods>
 130d1fc: d0001a80     	adrp	x0, 0x165f000 <type:*+0x229180>
 130d200: 91068000     	add	x0, x0, #0x1a0
 130d204: 97c440d3     	bl	0x41d550 <runtime.newobject>
 130d208: b0000044     	adrp	x4, 0x1316000 <main.main.(*Api).Auth.func9+0xb0>
 130d20c: 91340084     	add	x4, x4, #0xd00
 130d210: f9000004     	str	x4, [x0]
 130d214: f00143bb     	adrp	x27, 0x3b84000 <crypto/internal/fips140deps/cpu.S390XHasSHA3>
 130d218: b94a7365     	ldr	w5, [x27, #0xa70]
 130d21c: 35000065     	cbnz	w5, 0x130d228 <main.main+0xe08>
 130d220: f940f7e5     	ldr	x5, [sp, #0x1e8]
 130d224: 14000004     	b	0x130d234 <main.main+0xe14>
 130d228: 97c5ed06     	bl	0x488640 <runtime.gcWriteBarrier1>
 130d22c: f940f7e5     	ldr	x5, [sp, #0x1e8]
 130d230: f9000325     	str	x5, [x25]
 130d234: f9000405     	str	x5, [x0, #0x8]
 130d238: 90002be1     	adrp	x1, 0x1889000 <go:string.*+0x9508>
 130d23c: 9132d821     	add	x1, x1, #0xcb6
 130d240: d2800162     	mov	x2, #0xb                // =11
 130d244: aa0003e3     	mov	x3, x0
 130d248: f94087e0     	ldr	x0, [sp, #0x108]
 130d24c: 97f2d3c9     	bl	0xfc2170 <github.com/gorilla/mux.(*Router).HandleFunc>
 130d250: d0001a80     	adrp	x0, 0x165f000 <type:*+0x229180>
 130d254: 91068000     	add	x0, x0, #0x1a0
 130d258: 97c440be     	bl	0x41d550 <runtime.newobject>
 130d25c: b0000044     	adrp	x4, 0x1316000 <main.main.(*Api).Auth.func9+0xb0>
 130d260: 91364084     	add	x4, x4, #0xd90
 130d264: f9000004     	str	x4, [x0]
 130d268: f00143bb     	adrp	x27, 0x3b84000 <crypto/internal/fips140deps/cpu.S390XHasSHA3>
 130d26c: b94a7365     	ldr	w5, [x27, #0xa70]
 130d270: 35000065     	cbnz	w5, 0x130d27c <main.main+0xe5c>
 130d274: f940f7e5     	ldr	x5, [sp, #0x1e8]
 130d278: 14000004     	b	0x130d288 <main.main+0xe68>
 130d27c: 97c5ecf1     	bl	0x488640 <runtime.gcWriteBarrier1>
 130d280: f940f7e5     	ldr	x5, [sp, #0x1e8]
 130d284: f9000325     	str	x5, [x25]
 130d288: f9000405     	str	x5, [x0, #0x8]
 130d28c: f0002bc1     	adrp	x1, 0x1888000 <go:string.*+0x8508>
 130d290: 911b5021     	add	x1, x1, #0x6d4
 130d294: d2800142     	mov	x2, #0xa                // =10
 130d298: aa0003e3     	mov	x3, x0
 130d29c: f94087e0     	ldr	x0, [sp, #0x108]
 130d2a0: 97f2d3b4     	bl	0xfc2170 <github.com/gorilla/mux.(*Router).HandleFunc>
 130d2a4: d0001a80     	adrp	x0, 0x165f000 <type:*+0x229180>
 130d2a8: 91068000     	add	x0, x0, #0x1a0
 130d2ac: 97c440a9     	bl	0x41d550 <runtime.newobject>
 130d2b0: b0000044     	adrp	x4, 0x1316000 <main.main.(*Api).Auth.func9+0xb0>
 130d2b4: 91388084     	add	x4, x4, #0xe20
 130d2b8: f9000004     	str	x4, [x0]
 130d2bc: f00143bb     	adrp	x27, 0x3b84000 <crypto/internal/fips140deps/cpu.S390XHasSHA3>
 130d2c0: b94a7365     	ldr	w5, [x27, #0xa70]
 130d2c4: 35000065     	cbnz	w5, 0x130d2d0 <main.main+0xeb0>
 130d2c8: f940f7e5     	ldr	x5, [sp, #0x1e8]
 130d2cc: 14000004     	b	0x130d2dc <main.main+0xebc>
 130d2d0: 97c5ecdc     	bl	0x488640 <runtime.gcWriteBarrier1>
 130d2d4: f940f7e5     	ldr	x5, [sp, #0x1e8]
 130d2d8: f9000325     	str	x5, [x25]
 130d2dc: f9000405     	str	x5, [x0, #0x8]
 130d2e0: 90002bc1     	adrp	x1, 0x1885000 <go:string.*+0x5508>
 130d2e4: 912a5821     	add	x1, x1, #0xa96
 130d2e8: b27d03e2     	orr	x2, xzr, #0x8
 130d2ec: aa0003e3     	mov	x3, x0
 130d2f0: f94087e0     	ldr	x0, [sp, #0x108]
 130d2f4: 97f2d39f     	bl	0xfc2170 <github.com/gorilla/mux.(*Router).HandleFunc>
 130d2f8: d0001a80     	adrp	x0, 0x165f000 <type:*+0x229180>
 130d2fc: 91068000     	add	x0, x0, #0x1a0
 130d300: 97c44094     	bl	0x41d550 <runtime.newobject>
 130d304: b0000044     	adrp	x4, 0x1316000 <main.main.(*Api).Auth.func9+0xb0>
 130d308: 913ac084     	add	x4, x4, #0xeb0
 130d30c: f9000004     	str	x4, [x0]
 130d310: f00143bb     	adrp	x27, 0x3b84000 <crypto/internal/fips140deps/cpu.S390XHasSHA3>
 130d314: b94a7365     	ldr	w5, [x27, #0xa70]
 130d318: 35000065     	cbnz	w5, 0x130d324 <main.main+0xf04>
 130d31c: f940f7e5     	ldr	x5, [sp, #0x1e8]
 130d320: 14000004     	b	0x130d330 <main.main+0xf10>
 130d324: 97c5ecc7     	bl	0x488640 <runtime.gcWriteBarrier1>
 130d328: f940f7e5     	ldr	x5, [sp, #0x1e8]
 130d32c: f9000325     	str	x5, [x25]
 130d330: f9000405     	str	x5, [x0, #0x8]
 130d334: d0002be1     	adrp	x1, 0x188b000 <go:string.*+0xb508>
 130d338: 910c4021     	add	x1, x1, #0x310
 130d33c: b27e07e2     	orr	x2, xzr, #0xc
 130d340: aa0003e3     	mov	x3, x0
 130d344: f94087e0     	ldr	x0, [sp, #0x108]
 130d348: 97f2d38a     	bl	0xfc2170 <github.com/gorilla/mux.(*Router).HandleFunc>
 130d34c: d0001a80     	adrp	x0, 0x165f000 <type:*+0x229180>
 130d350: 91068000     	add	x0, x0, #0x1a0
 130d354: 97c4407f     	bl	0x41d550 <runtime.newobject>
 130d358: b0000044     	adrp	x4, 0x1316000 <main.main.(*Api).Auth.func9+0xb0>
 130d35c: 913d0084     	add	x4, x4, #0xf40
 130d360: f9000004     	str	x4, [x0]
 130d364: f00143bb     	adrp	x27, 0x3b84000 <crypto/internal/fips140deps/cpu.S390XHasSHA3>
 130d368: b94a7365     	ldr	w5, [x27, #0xa70]
 130d36c: 35000065     	cbnz	w5, 0x130d378 <main.main+0xf58>
 130d370: f940f7e5     	ldr	x5, [sp, #0x1e8]
 130d374: 14000004     	b	0x130d384 <main.main+0xf64>
 130d378: 97c5ecb2     	bl	0x488640 <runtime.gcWriteBarrier1>
 130d37c: f940f7e5     	ldr	x5, [sp, #0x1e8]
 130d380: f9000325     	str	x5, [x25]
 130d384: f9000405     	str	x5, [x0, #0x8]
 130d388: f0002bc1     	adrp	x1, 0x1888000 <go:string.*+0x8508>
 130d38c: 911b7821     	add	x1, x1, #0x6de
 130d390: d2800142     	mov	x2, #0xa                // =10
 130d394: aa0003e3     	mov	x3, x0
 130d398: f94087e0     	ldr	x0, [sp, #0x108]
 130d39c: 97f2d375     	bl	0xfc2170 <github.com/gorilla/mux.(*Router).HandleFunc>
 130d3a0: f94103e4     	ldr	x4, [sp, #0x200]
 130d3a4: f9400085     	ldr	x5, [x4]
 130d3a8: a94288a1     	ldp	x1, x2, [x5, #0x28]
 130d3ac: f100045f     	cmp	x2, #0x1
 130d3b0: 54000081     	b.ne	0x130d3c0 <main.main+0xfa0>
 130d3b4: 39400023     	ldrb	w3, [x1]
 130d3b8: 7100bc7f     	cmp	w3, #0x2f
 130d3bc: 54000e00     	b.eq	0x130d57c <main.main+0x115c>
 130d3c0: f94087e0     	ldr	x0, [sp, #0x108]
 130d3c4: 97f2d69b     	bl	0xfc2e30 <github.com/gorilla/mux.(*Router).PathPrefix>
 130d3c8: 97f2e946     	bl	0xfc78e0 <github.com/gorilla/mux.(*Route).Subrouter>
 130d3cc: f900b7e0     	str	x0, [sp, #0x168]
 130d3d0: d0001a80     	adrp	x0, 0x165f000 <type:*+0x229180>
 130d3d4: 91068000     	add	x0, x0, #0x1a0
 130d3d8: 97c4405e     	bl	0x41d550 <runtime.newobject>
 130d3dc: b0000043     	adrp	x3, 0x1316000 <main.main.(*Api).Auth.func9+0xb0>
 130d3e0: 91340063     	add	x3, x3, #0xd00
 130d3e4: f9000003     	str	x3, [x0]
 130d3e8: f00143bb     	adrp	x27, 0x3b84000 <crypto/internal/fips140deps/cpu.S390XHasSHA3>
 130d3ec: b94a7363     	ldr	w3, [x27, #0xa70]
 130d3f0: 35000063     	cbnz	w3, 0x130d3fc <main.main+0xfdc>
 130d3f4: f940f7e4     	ldr	x4, [sp, #0x1e8]
 130d3f8: 14000004     	b	0x130d408 <main.main+0xfe8>
 130d3fc: 97c5ec91     	bl	0x488640 <runtime.gcWriteBarrier1>
 130d400: f940f7e4     	ldr	x4, [sp, #0x1e8]
 130d404: f9000324     	str	x4, [x25]
 130d408: f9000404     	str	x4, [x0, #0x8]
 130d40c: 90002be1     	adrp	x1, 0x1889000 <go:string.*+0x9508>
 130d410: 9132d821     	add	x1, x1, #0xcb6
 130d414: d2800162     	mov	x2, #0xb                // =11
 130d418: aa0003e3     	mov	x3, x0
 130d41c: f940b7e0     	ldr	x0, [sp, #0x168]
 130d420: 97f2d354     	bl	0xfc2170 <github.com/gorilla/mux.(*Router).HandleFunc>
 130d424: d0001a80     	adrp	x0, 0x165f000 <type:*+0x229180>
 130d428: 91068000     	add	x0, x0, #0x1a0
 130d42c: 97c44049     	bl	0x41d550 <runtime.newobject>
 130d430: b0000044     	adrp	x4, 0x1316000 <main.main.(*Api).Auth.func9+0xb0>
 130d434: 91364084     	add	x4, x4, #0xd90
 130d438: f9000004     	str	x4, [x0]
 130d43c: f00143bb     	adrp	x27, 0x3b84000 <crypto/internal/fips140deps/cpu.S390XHasSHA3>
 130d440: b94a7364     	ldr	w4, [x27, #0xa70]
 130d444: 35000064     	cbnz	w4, 0x130d450 <main.main+0x1030>
 130d448: f940f7e4     	ldr	x4, [sp, #0x1e8]
 130d44c: 14000004     	b	0x130d45c <main.main+0x103c>
 130d450: 97c5ec7c     	bl	0x488640 <runtime.gcWriteBarrier1>
 130d454: f940f7e4     	ldr	x4, [sp, #0x1e8]
 130d458: f9000324     	str	x4, [x25]
 130d45c: f9000404     	str	x4, [x0, #0x8]
 130d460: f0002bc1     	adrp	x1, 0x1888000 <go:string.*+0x8508>
 130d464: 911b5021     	add	x1, x1, #0x6d4
 130d468: d2800142     	mov	x2, #0xa                // =10
 130d46c: aa0003e3     	mov	x3, x0
 130d470: f940b7e0     	ldr	x0, [sp, #0x168]
 130d474: 97f2d33f     	bl	0xfc2170 <github.com/gorilla/mux.(*Router).HandleFunc>
 130d478: d0001a80     	adrp	x0, 0x165f000 <type:*+0x229180>
 130d47c: 91068000     	add	x0, x0, #0x1a0
 130d480: 97c44034     	bl	0x41d550 <runtime.newobject>
 130d484: b0000044     	adrp	x4, 0x1316000 <main.main.(*Api).Auth.func9+0xb0>
 130d488: 91388084     	add	x4, x4, #0xe20
 130d48c: f9000004     	str	x4, [x0]
 130d490: f00143bb     	adrp	x27, 0x3b84000 <crypto/internal/fips140deps/cpu.S390XHasSHA3>
 130d494: b94a7364     	ldr	w4, [x27, #0xa70]
 130d498: 35000064     	cbnz	w4, 0x130d4a4 <main.main+0x1084>
 130d49c: f940f7e4     	ldr	x4, [sp, #0x1e8]
 130d4a0: 14000004     	b	0x130d4b0 <main.main+0x1090>
 130d4a4: 97c5ec67     	bl	0x488640 <runtime.gcWriteBarrier1>
 130d4a8: f940f7e4     	ldr	x4, [sp, #0x1e8]
 130d4ac: f9000324     	str	x4, [x25]
 130d4b0: f9000404     	str	x4, [x0, #0x8]
 130d4b4: 90002bc1     	adrp	x1, 0x1885000 <go:string.*+0x5508>
 130d4b8: 912a5821     	add	x1, x1, #0xa96
 130d4bc: b27d03e2     	orr	x2, xzr, #0x8
 130d4c0: aa0003e3     	mov	x3, x0
 130d4c4: f940b7e0     	ldr	x0, [sp, #0x168]
 130d4c8: 97f2d32a     	bl	0xfc2170 <github.com/gorilla/mux.(*Router).HandleFunc>
 130d4cc: d0001a80     	adrp	x0, 0x165f000 <type:*+0x229180>
 130d4d0: 91068000     	add	x0, x0, #0x1a0
 130d4d4: 97c4401f     	bl	0x41d550 <runtime.newobject>
 130d4d8: b0000044     	adrp	x4, 0x1316000 <main.main.(*Api).Auth.func9+0xb0>
 130d4dc: 913ac084     	add	x4, x4, #0xeb0
 130d4e0: f9000004     	str	x4, [x0]
 130d4e4: f00143bb     	adrp	x27, 0x3b84000 <crypto/internal/fips140deps/cpu.S390XHasSHA3>
 130d4e8: b94a7364     	ldr	w4, [x27, #0xa70]
 130d4ec: 35000064     	cbnz	w4, 0x130d4f8 <main.main+0x10d8>
 130d4f0: f940f7e4     	ldr	x4, [sp, #0x1e8]
 130d4f4: 14000004     	b	0x130d504 <main.main+0x10e4>
 130d4f8: 97c5ec52     	bl	0x488640 <runtime.gcWriteBarrier1>
 130d4fc: f940f7e4     	ldr	x4, [sp, #0x1e8]
 130d500: f9000324     	str	x4, [x25]
 130d504: f9000404     	str	x4, [x0, #0x8]
 130d508: d0002be1     	adrp	x1, 0x188b000 <go:string.*+0xb508>
 130d50c: 910c4021     	add	x1, x1, #0x310
 130d510: b27e07e2     	orr	x2, xzr, #0xc
 130d514: aa0003e3     	mov	x3, x0
 130d518: f940b7e0     	ldr	x0, [sp, #0x168]
 130d51c: 97f2d315     	bl	0xfc2170 <github.com/gorilla/mux.(*Router).HandleFunc>
 130d520: d0001a80     	adrp	x0, 0x165f000 <type:*+0x229180>
 130d524: 91068000     	add	x0, x0, #0x1a0
 130d528: 97c4400a     	bl	0x41d550 <runtime.newobject>
 130d52c: b0000044     	adrp	x4, 0x1316000 <main.main.(*Api).Auth.func9+0xb0>
 130d530: 913d0084     	add	x4, x4, #0xf40
 130d534: f9000004     	str	x4, [x0]
 130d538: f00143bb     	adrp	x27, 0x3b84000 <crypto/internal/fips140deps/cpu.S390XHasSHA3>
 130d53c: b94a7364     	ldr	w4, [x27, #0xa70]
 130d540: 35000064     	cbnz	w4, 0x130d54c <main.main+0x112c>
 130d544: f940f7e4     	ldr	x4, [sp, #0x1e8]
 130d548: 14000004     	b	0x130d558 <main.main+0x1138>
 130d54c: 97c5ec3d     	bl	0x488640 <runtime.gcWriteBarrier1>
 130d550: f940f7e4     	ldr	x4, [sp, #0x1e8]
 130d554: f9000324     	str	x4, [x25]
 130d558: f9000404     	str	x4, [x0, #0x8]
 130d55c: f0002bc1     	adrp	x1, 0x1888000 <go:string.*+0x8508>
 130d560: 911b7821     	add	x1, x1, #0x6de
 130d564: d2800142     	mov	x2, #0xa                // =10
 130d568: aa0003e3     	mov	x3, x0
 130d56c: f940b7e0     	ldr	x0, [sp, #0x168]
 130d570: 97f2d300     	bl	0xfc2170 <github.com/gorilla/mux.(*Router).HandleFunc>
 130d574: f940b7e0     	ldr	x0, [sp, #0x168]
 130d578: 14000002     	b	0x130d580 <main.main+0x1160>
 130d57c: f94087e0     	ldr	x0, [sp, #0x108]
 130d580: f900b7e0     	str	x0, [sp, #0x168]
 130d584: d0001a80     	adrp	x0, 0x165f000 <type:*+0x229180>
 130d588: 91048000     	add	x0, x0, #0x120
 130d58c: 97c43ff1     	bl	0x41d550 <runtime.newobject>
 130d590: b0000041     	adrp	x1, 0x1316000 <main.main.(*Api).Auth.func9+0xb0>
 130d594: 913f4021     	add	x1, x1, #0xfd0
 130d598: f9000001     	str	x1, [x0]
 130d59c: f00143bb     	adrp	x27, 0x3b84000 <crypto/internal/fips140deps/cpu.S390XHasSHA3>
 130d5a0: b94a7361     	ldr	w1, [x27, #0xa70]
 130d5a4: 35000061     	cbnz	w1, 0x130d5b0 <main.main+0x1190>
 130d5a8: f9412fe4     	ldr	x4, [sp, #0x258]
 130d5ac: 14000004     	b	0x130d5bc <main.main+0x119c>
 130d5b0: 97c5ec24     	bl	0x488640 <runtime.gcWriteBarrier1>
 130d5b4: f9412fe4     	ldr	x4, [sp, #0x258]
 130d5b8: f9000324     	str	x4, [x25]
 130d5bc: f9000404     	str	x4, [x0, #0x8]
 130d5c0: d0002bc1     	adrp	x1, 0x1887000 <go:string.*+0x7508>
 130d5c4: 9102d821     	add	x1, x1, #0xb6
 130d5c8: d2800122     	mov	x2, #0x9                // =9
 130d5cc: aa0003e3     	mov	x3, x0
 130d5d0: f940b7e0     	ldr	x0, [sp, #0x168]
 130d5d4: 97f2d2e7     	bl	0xfc2170 <github.com/gorilla/mux.(*Router).HandleFunc>
 130d5d8: f90143e0     	str	x0, [sp, #0x280]
 130d5dc: b00012e0     	adrp	x0, 0x156a000 <type:*+0x134180>
 130d5e0: 91010000     	add	x0, x0, #0x40
 130d5e4: 97c43fdb     	bl	0x41d550 <runtime.newobject>
 130d5e8: f0002b84     	adrp	x4, 0x1880000 <go:string.*+0x508>
 130d5ec: 91147484     	add	x4, x4, #0x51d
 130d5f0: b27e03e5     	orr	x5, xzr, #0x4
 130d5f4: a9001404     	stp	x4, x5, [x0]
 130d5f8: aa0003e1     	mov	x1, x0
 130d5fc: b24003e2     	orr	x2, xzr, #0x1
 130d600: aa0203e3     	mov	x3, x2
 130d604: f94143e0     	ldr	x0, [sp, #0x280]
 130d608: 97f2e6ba     	bl	0xfc70f0 <github.com/gorilla/mux.(*Route).Methods>
 130d60c: d0001a80     	adrp	x0, 0x165f000 <type:*+0x229180>
 130d610: 91048000     	add	x0, x0, #0x120
 130d614: 97c43fcf     	bl	0x41d550 <runtime.newobject>
 130d618: d0000044     	adrp	x4, 0x1317000 <github.com/coroot/enterprise/api.(*Api).SamlACS-fm+0x30>
 130d61c: 91018084     	add	x4, x4, #0x60
 130d620: f9000004     	str	x4, [x0]
 130d624: f00143bb     	adrp	x27, 0x3b84000 <crypto/internal/fips140deps/cpu.S390XHasSHA3>
 130d628: b94a7364     	ldr	w4, [x27, #0xa70]
 130d62c: 35000064     	cbnz	w4, 0x130d638 <main.main+0x1218>
 130d630: f9412fe4     	ldr	x4, [sp, #0x258]
 130d634: 14000004     	b	0x130d644 <main.main+0x1224>
 130d638: 97c5ec02     	bl	0x488640 <runtime.gcWriteBarrier1>
 130d63c: f9412fe4     	ldr	x4, [sp, #0x258]
 130d640: f9000324     	str	x4, [x25]
 130d644: f9000404     	str	x4, [x0, #0x8]
 130d648: d0002bc1     	adrp	x1, 0x1887000 <go:string.*+0x7508>
 130d64c: 9102fc21     	add	x1, x1, #0xbf
 130d650: d2800122     	mov	x2, #0x9                // =9
 130d654: aa0003e3     	mov	x3, x0
 130d658: f940b7e0     	ldr	x0, [sp, #0x168]
 130d65c: 97f2d2c5     	bl	0xfc2170 <github.com/gorilla/mux.(*Router).HandleFunc>
 130d660: f90143e0     	str	x0, [sp, #0x280]
 130d664: b00012e0     	adrp	x0, 0x156a000 <type:*+0x134180>
 130d668: 91010000     	add	x0, x0, #0x40
 130d66c: 97c43fb9     	bl	0x41d550 <runtime.newobject>
 130d670: d0002b84     	adrp	x4, 0x187f000 <type:*+0x449180>
 130d674: 913b8484     	add	x4, x4, #0xee1
 130d678: b24007e5     	orr	x5, xzr, #0x3
 130d67c: a9001404     	stp	x4, x5, [x0]
 130d680: aa0003e1     	mov	x1, x0
 130d684: b24003e2     	orr	x2, xzr, #0x1
 130d688: aa0203e3     	mov	x3, x2
 130d68c: f94143e0     	ldr	x0, [sp, #0x280]
 130d690: 97f2e698     	bl	0xfc70f0 <github.com/gorilla/mux.(*Route).Methods>
 130d694: d0001a80     	adrp	x0, 0x165f000 <type:*+0x229180>
 130d698: 91048000     	add	x0, x0, #0x120
 130d69c: 97c43fad     	bl	0x41d550 <runtime.newobject>
 130d6a0: d0000044     	adrp	x4, 0x1317000 <github.com/coroot/enterprise/api.(*Api).SamlACS-fm+0x30>
 130d6a4: 9103c084     	add	x4, x4, #0xf0
 130d6a8: f9000004     	str	x4, [x0]
 130d6ac: f00143bb     	adrp	x27, 0x3b84000 <crypto/internal/fips140deps/cpu.S390XHasSHA3>
 130d6b0: b94a7364     	ldr	w4, [x27, #0xa70]
 130d6b4: 35000064     	cbnz	w4, 0x130d6c0 <main.main+0x12a0>
 130d6b8: f9412fe4     	ldr	x4, [sp, #0x258]
 130d6bc: 14000004     	b	0x130d6cc <main.main+0x12ac>
 130d6c0: 97c5ebe0     	bl	0x488640 <runtime.gcWriteBarrier1>
 130d6c4: f9412fe4     	ldr	x4, [sp, #0x258]
 130d6c8: f9000324     	str	x4, [x25]
 130d6cc: f9000404     	str	x4, [x0, #0x8]
 130d6d0: f0002bc1     	adrp	x1, 0x1888000 <go:string.*+0x8508>
 130d6d4: 911ba021     	add	x1, x1, #0x6e8
 130d6d8: d2800142     	mov	x2, #0xa                // =10
 130d6dc: aa0003e3     	mov	x3, x0
 130d6e0: f940b7e0     	ldr	x0, [sp, #0x168]
 130d6e4: 97f2d2a3     	bl	0xfc2170 <github.com/gorilla/mux.(*Router).HandleFunc>
 130d6e8: f90143e0     	str	x0, [sp, #0x280]
 130d6ec: b00012e0     	adrp	x0, 0x156a000 <type:*+0x134180>
 130d6f0: 91010000     	add	x0, x0, #0x40
 130d6f4: 97c43f97     	bl	0x41d550 <runtime.newobject>
 130d6f8: f0002b84     	adrp	x4, 0x1880000 <go:string.*+0x508>
 130d6fc: 91147484     	add	x4, x4, #0x51d
 130d700: b27e03e5     	orr	x5, xzr, #0x4
 130d704: a9001404     	stp	x4, x5, [x0]
 130d708: aa0003e1     	mov	x1, x0
 130d70c: b24003e2     	orr	x2, xzr, #0x1
 130d710: aa0203e3     	mov	x3, x2
 130d714: f94143e0     	ldr	x0, [sp, #0x280]
 130d718: 97f2e676     	bl	0xfc70f0 <github.com/gorilla/mux.(*Route).Methods>
 130d71c: d0001a80     	adrp	x0, 0x165f000 <type:*+0x229180>
 130d720: 91028000     	add	x0, x0, #0xa0
 130d724: 97c43f8b     	bl	0x41d550 <runtime.newobject>
 130d728: d0000044     	adrp	x4, 0x1317000 <github.com/coroot/enterprise/api.(*Api).SamlACS-fm+0x30>
 130d72c: 91060084     	add	x4, x4, #0x180
 130d730: f9000004     	str	x4, [x0]
 130d734: f9412fe4     	ldr	x4, [sp, #0x258]
 130d738: f9400485     	ldr	x5, [x4, #0x8]
 130d73c: f00143bb     	adrp	x27, 0x3b84000 <crypto/internal/fips140deps/cpu.S390XHasSHA3>
 130d740: b94a7366     	ldr	w6, [x27, #0xa70]
 130d744: 34000066     	cbz	w6, 0x130d750 <main.main+0x1330>
 130d748: 97c5ebbe     	bl	0x488640 <runtime.gcWriteBarrier1>
 130d74c: f9000325     	str	x5, [x25]
 130d750: f9000405     	str	x5, [x0, #0x8]
 130d754: 90002be1     	adrp	x1, 0x1889000 <go:string.*+0x9508>
 130d758: 91330421     	add	x1, x1, #0xcc1
 130d75c: d2800162     	mov	x2, #0xb                // =11
 130d760: aa0003e3     	mov	x3, x0
 130d764: f940b7e0     	ldr	x0, [sp, #0x168]
 130d768: 97f2d282     	bl	0xfc2170 <github.com/gorilla/mux.(*Router).HandleFunc>
 130d76c: f90143e0     	str	x0, [sp, #0x280]
 130d770: b00012e0     	adrp	x0, 0x156a000 <type:*+0x134180>
 130d774: 91010000     	add	x0, x0, #0x40
 130d778: 97c43f76     	bl	0x41d550 <runtime.newobject>
 130d77c: f0002b84     	adrp	x4, 0x1880000 <go:string.*+0x508>
 130d780: 91147484     	add	x4, x4, #0x51d
 130d784: b27e03e5     	orr	x5, xzr, #0x4
 130d788: a9001404     	stp	x4, x5, [x0]
 130d78c: aa0003e1     	mov	x1, x0
 130d790: b24003e2     	orr	x2, xzr, #0x1
 130d794: aa0203e3     	mov	x3, x2
 130d798: f94143e0     	ldr	x0, [sp, #0x280]
 130d79c: 97f2e655     	bl	0xfc70f0 <github.com/gorilla/mux.(*Route).Methods>
 130d7a0: d0001a80     	adrp	x0, 0x165f000 <type:*+0x229180>
 130d7a4: 91048000     	add	x0, x0, #0x120
 130d7a8: 97c43f6a     	bl	0x41d550 <runtime.newobject>
 130d7ac: d0000044     	adrp	x4, 0x1317000 <github.com/coroot/enterprise/api.(*Api).SamlACS-fm+0x30>
 130d7b0: 91090084     	add	x4, x4, #0x240
 130d7b4: f9000004     	str	x4, [x0]
 130d7b8: f00143bb     	adrp	x27, 0x3b84000 <crypto/internal/fips140deps/cpu.S390XHasSHA3>
 130d7bc: b94a7364     	ldr	w4, [x27, #0xa70]
 130d7c0: 35000064     	cbnz	w4, 0x130d7cc <main.main+0x13ac>
 130d7c4: f9412fe4     	ldr	x4, [sp, #0x258]
 130d7c8: 14000004     	b	0x130d7d8 <main.main+0x13b8>
 130d7cc: 97c5eb9d     	bl	0x488640 <runtime.gcWriteBarrier1>
 130d7d0: f9412fe4     	ldr	x4, [sp, #0x258]
 130d7d4: f9000324     	str	x4, [x25]
 130d7d8: f9000404     	str	x4, [x0, #0x8]
 130d7dc: d0002c01     	adrp	x1, 0x188f000 <go:string.*+0xf508>
 130d7e0: 91215c21     	add	x1, x1, #0x857
 130d7e4: b2400fe2     	orr	x2, xzr, #0xf
 130d7e8: aa0003e3     	mov	x3, x0
 130d7ec: f940b7e0     	ldr	x0, [sp, #0x168]
 130d7f0: 97f2d260     	bl	0xfc2170 <github.com/gorilla/mux.(*Router).HandleFunc>
 130d7f4: f90143e0     	str	x0, [sp, #0x280]
 130d7f8: b00012e0     	adrp	x0, 0x156a000 <type:*+0x134180>
 130d7fc: 91010000     	add	x0, x0, #0x40
 130d800: 97c43f54     	bl	0x41d550 <runtime.newobject>
 130d804: d0002b84     	adrp	x4, 0x187f000 <type:*+0x449180>
 130d808: 913b8484     	add	x4, x4, #0xee1
 130d80c: b24007e5     	orr	x5, xzr, #0x3
 130d810: a9001404     	stp	x4, x5, [x0]
 130d814: aa0003e1     	mov	x1, x0
 130d818: b24003e2     	orr	x2, xzr, #0x1
 130d81c: aa0203e3     	mov	x3, x2
 130d820: f94143e0     	ldr	x0, [sp, #0x280]
 130d824: 97f2e633     	bl	0xfc70f0 <github.com/gorilla/mux.(*Route).Methods>
 130d828: d0001a80     	adrp	x0, 0x165f000 <type:*+0x229180>
 130d82c: 91048000     	add	x0, x0, #0x120
 130d830: 97c43f48     	bl	0x41d550 <runtime.newobject>
 130d834: d0000044     	adrp	x4, 0x1317000 <github.com/coroot/enterprise/api.(*Api).SamlACS-fm+0x30>
 130d838: 910b4084     	add	x4, x4, #0x2d0
 130d83c: f9000004     	str	x4, [x0]
 130d840: f00143bb     	adrp	x27, 0x3b84000 <crypto/internal/fips140deps/cpu.S390XHasSHA3>
 130d844: b94a7364     	ldr	w4, [x27, #0xa70]
 130d848: 35000064     	cbnz	w4, 0x130d854 <main.main+0x1434>
 130d84c: f9412fe4     	ldr	x4, [sp, #0x258]
 130d850: 14000004     	b	0x130d860 <main.main+0x1440>
 130d854: 97c5eb7b     	bl	0x488640 <runtime.gcWriteBarrier1>
 130d858: f9412fe4     	ldr	x4, [sp, #0x258]
 130d85c: f9000324     	str	x4, [x25]
 130d860: f9000404     	str	x4, [x0, #0x8]
 130d864: b0002c01     	adrp	x1, 0x188e000 <go:string.*+0xe508>
 130d868: 9101fc21     	add	x1, x1, #0x7f
 130d86c: b27f0be2     	orr	x2, xzr, #0xe
 130d870: aa0003e3     	mov	x3, x0
 130d874: f940b7e0     	ldr	x0, [sp, #0x168]
 130d878: 97f2d23e     	bl	0xfc2170 <github.com/gorilla/mux.(*Router).HandleFunc>
 130d87c: f90143e0     	str	x0, [sp, #0x280]
 130d880: b00012e0     	adrp	x0, 0x156a000 <type:*+0x134180>
 130d884: 91010000     	add	x0, x0, #0x40
 130d888: 97c43f32     	bl	0x41d550 <runtime.newobject>
 130d88c: d0002b84     	adrp	x4, 0x187f000 <type:*+0x449180>
 130d890: 913b8484     	add	x4, x4, #0xee1
 130d894: b24007e5     	orr	x5, xzr, #0x3
 130d898: a9001404     	stp	x4, x5, [x0]
 130d89c: aa0003e1     	mov	x1, x0
 130d8a0: b24003e2     	orr	x2, xzr, #0x1
 130d8a4: aa0203e3     	mov	x3, x2
 130d8a8: f94143e0     	ldr	x0, [sp, #0x280]
 130d8ac: 97f2e611     	bl	0xfc70f0 <github.com/gorilla/mux.(*Route).Methods>
 130d8b0: d0001a80     	adrp	x0, 0x165f000 <type:*+0x229180>
 130d8b4: 91048000     	add	x0, x0, #0x120
 130d8b8: 97c43f26     	bl	0x41d550 <runtime.newobject>
 130d8bc: d0000044     	adrp	x4, 0x1317000 <github.com/coroot/enterprise/api.(*Api).SamlACS-fm+0x30>
 130d8c0: 910d8084     	add	x4, x4, #0x360
 130d8c4: f9000004     	str	x4, [x0]
 130d8c8: f00143bb     	adrp	x27, 0x3b84000 <crypto/internal/fips140deps/cpu.S390XHasSHA3>
 130d8cc: b94a7364     	ldr	w4, [x27, #0xa70]
 130d8d0: 35000064     	cbnz	w4, 0x130d8dc <main.main+0x14bc>
 130d8d4: f9412fe1     	ldr	x1, [sp, #0x258]
 130d8d8: 14000004     	b	0x130d8e8 <main.main+0x14c8>
 130d8dc: 97c5eb59     	bl	0x488640 <runtime.gcWriteBarrier1>
 130d8e0: f9412fe1     	ldr	x1, [sp, #0x258]
 130d8e4: f9000321     	str	x1, [x25]
 130d8e8: f9014fe0     	str	x0, [sp, #0x298]
 130d8ec: f9000401     	str	x1, [x0, #0x8]
 130d8f0: 90001e00     	adrp	x0, 0x16cd000 <type:*+0x297180>
 130d8f4: 91290000     	add	x0, x0, #0xa40
 130d8f8: 97c43f16     	bl	0x41d550 <runtime.newobject>
 130d8fc: b0000041     	adrp	x1, 0x1316000 <main.main.(*Api).Auth.func9+0xb0>
 130d900: 910bc021     	add	x1, x1, #0x2f0
 130d904: f9000001     	str	x1, [x0]
 130d908: f00143bb     	adrp	x27, 0x3b84000 <crypto/internal/fips140deps/cpu.S390XHasSHA3>
 130d90c: b94a7361     	ldr	w1, [x27, #0xa70]
 130d910: 35000081     	cbnz	w1, 0x130d920 <main.main+0x1500>
 130d914: f9412fe4     	ldr	x4, [sp, #0x258]
 130d918: f9414fe5     	ldr	x5, [sp, #0x298]
 130d91c: 14000005     	b	0x130d930 <main.main+0x1510>
 130d920: 97c5eb4c     	bl	0x488650 <runtime.gcWriteBarrier2>
 130d924: f9412fe4     	ldr	x4, [sp, #0x258]
 130d928: f9414fe5     	ldr	x5, [sp, #0x298]
 130d92c: a9001724     	stp	x4, x5, [x25]
 130d930: a9009404     	stp	x4, x5, [x0, #0x8]
 130d934: d0002bc1     	adrp	x1, 0x1887000 <go:string.*+0x7508>
 130d938: 91032021     	add	x1, x1, #0xc8
 130d93c: d2800122     	mov	x2, #0x9                // =9
 130d940: aa0003e3     	mov	x3, x0
 130d944: f940b7e0     	ldr	x0, [sp, #0x168]
 130d948: 97f2d20a     	bl	0xfc2170 <github.com/gorilla/mux.(*Router).HandleFunc>
 130d94c: f90143e0     	str	x0, [sp, #0x280]
 130d950: b00012e0     	adrp	x0, 0x156a000 <type:*+0x134180>
 130d954: 91040000     	add	x0, x0, #0x100
 130d958: 97c43efe     	bl	0x41d550 <runtime.newobject>
 130d95c: d0002b84     	adrp	x4, 0x187f000 <type:*+0x449180>
 130d960: 913b8484     	add	x4, x4, #0xee1
 130d964: b24007e5     	orr	x5, xzr, #0x3
 130d968: a9001404     	stp	x4, x5, [x0]
 130d96c: f0002b84     	adrp	x4, 0x1880000 <go:string.*+0x508>
 130d970: 91147484     	add	x4, x4, #0x51d
 130d974: b27e03e5     	orr	x5, xzr, #0x4
 130d978: a9011404     	stp	x4, x5, [x0, #0x10]
 130d97c: aa0003e1     	mov	x1, x0
 130d980: b27f03e2     	orr	x2, xzr, #0x2
 130d984: aa0203e3     	mov	x3, x2
 130d988: f94143e0     	ldr	x0, [sp, #0x280]
 130d98c: 97f2e5d9     	bl	0xfc70f0 <github.com/gorilla/mux.(*Route).Methods>
 130d990: d0001a80     	adrp	x0, 0x165f000 <type:*+0x229180>
 130d994: 91028000     	add	x0, x0, #0xa0
 130d998: 97c43eee     	bl	0x41d550 <runtime.newobject>
 130d99c: d0000044     	adrp	x4, 0x1317000 <github.com/coroot/enterprise/api.(*Api).SamlACS-fm+0x30>
 130d9a0: 910fc084     	add	x4, x4, #0x3f0
 130d9a4: f9000004     	str	x4, [x0]
 130d9a8: f9412fe4     	ldr	x4, [sp, #0x258]
 130d9ac: f9400485     	ldr	x5, [x4, #0x8]
 130d9b0: f00143bb     	adrp	x27, 0x3b84000 <crypto/internal/fips140deps/cpu.S390XHasSHA3>
 130d9b4: b94a7366     	ldr	w6, [x27, #0xa70]
 130d9b8: 34000066     	cbz	w6, 0x130d9c4 <main.main+0x15a4>
 130d9bc: 97c5eb21     	bl	0x488640 <runtime.gcWriteBarrier1>
 130d9c0: f9000325     	str	x5, [x25]
 130d9c4: f9013fe0     	str	x0, [sp, #0x278]
 130d9c8: f9000405     	str	x5, [x0, #0x8]
 130d9cc: 90001e00     	adrp	x0, 0x16cd000 <type:*+0x297180>
 130d9d0: 91290000     	add	x0, x0, #0xa40
 130d9d4: 97c43edf     	bl	0x41d550 <runtime.newobject>
 130d9d8: b0000041     	adrp	x1, 0x1316000 <main.main.(*Api).Auth.func9+0xb0>
 130d9dc: 91048021     	add	x1, x1, #0x120
 130d9e0: f9000001     	str	x1, [x0]
 130d9e4: f00143bb     	adrp	x27, 0x3b84000 <crypto/internal/fips140deps/cpu.S390XHasSHA3>
 130d9e8: b94a7361     	ldr	w1, [x27, #0xa70]
 130d9ec: 35000081     	cbnz	w1, 0x130d9fc <main.main+0x15dc>
 130d9f0: f9412fe4     	ldr	x4, [sp, #0x258]
 130d9f4: f9413fe5     	ldr	x5, [sp, #0x278]
 130d9f8: 14000005     	b	0x130da0c <main.main+0x15ec>
 130d9fc: 97c5eb15     	bl	0x488650 <runtime.gcWriteBarrier2>
 130da00: f9412fe4     	ldr	x4, [sp, #0x258]
 130da04: f9413fe5     	ldr	x5, [sp, #0x278]
 130da08: a9001724     	stp	x4, x5, [x25]
 130da0c: a9009404     	stp	x4, x5, [x0, #0x8]
 130da10: f0002bc1     	adrp	x1, 0x1888000 <go:string.*+0x8508>
 130da14: 911bc821     	add	x1, x1, #0x6f2
 130da18: d2800142     	mov	x2, #0xa                // =10
 130da1c: aa0003e3     	mov	x3, x0
 130da20: f940b7e0     	ldr	x0, [sp, #0x168]
 130da24: 97f2d1d3     	bl	0xfc2170 <github.com/gorilla/mux.(*Router).HandleFunc>
 130da28: f90143e0     	str	x0, [sp, #0x280]
 130da2c: b00012e0     	adrp	x0, 0x156a000 <type:*+0x134180>
 130da30: 91040000     	add	x0, x0, #0x100
 130da34: 97c43ec7     	bl	0x41d550 <runtime.newobject>
 130da38: d0002b84     	adrp	x4, 0x187f000 <type:*+0x449180>
 130da3c: 913b8484     	add	x4, x4, #0xee1
 130da40: b24007e5     	orr	x5, xzr, #0x3
 130da44: a9001404     	stp	x4, x5, [x0]
 130da48: f0002b84     	adrp	x4, 0x1880000 <go:string.*+0x508>
 130da4c: 91147484     	add	x4, x4, #0x51d
 130da50: b27e03e5     	orr	x5, xzr, #0x4
 130da54: a9011404     	stp	x4, x5, [x0, #0x10]
 130da58: aa0003e1     	mov	x1, x0
 130da5c: b27f03e2     	orr	x2, xzr, #0x2
 130da60: aa0203e3     	mov	x3, x2
 130da64: f94143e0     	ldr	x0, [sp, #0x280]
 130da68: 97f2e5a2     	bl	0xfc70f0 <github.com/gorilla/mux.(*Route).Methods>
 130da6c: d0001a80     	adrp	x0, 0x165f000 <type:*+0x229180>
 130da70: 91048000     	add	x0, x0, #0x120
 130da74: 97c43eb7     	bl	0x41d550 <runtime.newobject>
 130da78: d0000044     	adrp	x4, 0x1317000 <github.com/coroot/enterprise/api.(*Api).SamlACS-fm+0x30>
 130da7c: 91120084     	add	x4, x4, #0x480
 130da80: f9000004     	str	x4, [x0]
 130da84: f00143bb     	adrp	x27, 0x3b84000 <crypto/internal/fips140deps/cpu.S390XHasSHA3>
 130da88: b94a7364     	ldr	w4, [x27, #0xa70]
 130da8c: 35000064     	cbnz	w4, 0x130da98 <main.main+0x1678>
 130da90: f9412fe1     	ldr	x1, [sp, #0x258]
 130da94: 14000004     	b	0x130daa4 <main.main+0x1684>
 130da98: 97c5eaea     	bl	0x488640 <runtime.gcWriteBarrier1>
 130da9c: f9412fe1     	ldr	x1, [sp, #0x258]
 130daa0: f9000321     	str	x1, [x25]
 130daa4: f9014fe0     	str	x0, [sp, #0x298]
 130daa8: f9000401     	str	x1, [x0, #0x8]
 130daac: 90001e00     	adrp	x0, 0x16cd000 <type:*+0x297180>
 130dab0: 91290000     	add	x0, x0, #0xa40
 130dab4: 97c43ea7     	bl	0x41d550 <runtime.newobject>
 130dab8: 90000041     	adrp	x1, 0x1315000 <main.main.(*Api).Auth.func18+0x100>
 130dabc: 913d4021     	add	x1, x1, #0xf50
 130dac0: f9000001     	str	x1, [x0]
 130dac4: f00143bb     	adrp	x27, 0x3b84000 <crypto/internal/fips140deps/cpu.S390XHasSHA3>
 130dac8: b94a7361     	ldr	w1, [x27, #0xa70]
 130dacc: 35000081     	cbnz	w1, 0x130dadc <main.main+0x16bc>
 130dad0: f9412fe4     	ldr	x4, [sp, #0x258]
 130dad4: f9414fe5     	ldr	x5, [sp, #0x298]
 130dad8: 14000005     	b	0x130daec <main.main+0x16cc>
 130dadc: 97c5eadd     	bl	0x488650 <runtime.gcWriteBarrier2>
 130dae0: f9412fe4     	ldr	x4, [sp, #0x258]
 130dae4: f9414fe5     	ldr	x5, [sp, #0x298]
 130dae8: a9001724     	stp	x4, x5, [x25]
 130daec: a9009404     	stp	x4, x5, [x0, #0x8]
 130daf0: f0002bc1     	adrp	x1, 0x1888000 <go:string.*+0x8508>
 130daf4: 911bf021     	add	x1, x1, #0x6fc
 130daf8: d2800142     	mov	x2, #0xa                // =10
 130dafc: aa0003e3     	mov	x3, x0
 130db00: f940b7e0     	ldr	x0, [sp, #0x168]
 130db04: 97f2d19b     	bl	0xfc2170 <github.com/gorilla/mux.(*Router).HandleFunc>
 130db08: f90143e0     	str	x0, [sp, #0x280]
 130db0c: b00012e0     	adrp	x0, 0x156a000 <type:*+0x134180>
 130db10: 91040000     	add	x0, x0, #0x100
 130db14: 97c43e8f     	bl	0x41d550 <runtime.newobject>
 130db18: d0002b84     	adrp	x4, 0x187f000 <type:*+0x449180>
 130db1c: 913b8484     	add	x4, x4, #0xee1
 130db20: b24007e5     	orr	x5, xzr, #0x3
 130db24: a9001404     	stp	x4, x5, [x0]
 130db28: f0002b84     	adrp	x4, 0x1880000 <go:string.*+0x508>
 130db2c: 91147484     	add	x4, x4, #0x51d
 130db30: b27e03e5     	orr	x5, xzr, #0x4
 130db34: a9011404     	stp	x4, x5, [x0, #0x10]
 130db38: aa0003e1     	mov	x1, x0
 130db3c: b27f03e2     	orr	x2, xzr, #0x2
 130db40: aa0203e3     	mov	x3, x2
 130db44: f94143e0     	ldr	x0, [sp, #0x280]
 130db48: 97f2e56a     	bl	0xfc70f0 <github.com/gorilla/mux.(*Route).Methods>
 130db4c: d0001a80     	adrp	x0, 0x165f000 <type:*+0x229180>
 130db50: 91048000     	add	x0, x0, #0x120
 130db54: 97c43e7f     	bl	0x41d550 <runtime.newobject>
 130db58: d0000044     	adrp	x4, 0x1317000 <github.com/coroot/enterprise/api.(*Api).SamlACS-fm+0x30>
 130db5c: 91144084     	add	x4, x4, #0x510
 130db60: f9000004     	str	x4, [x0]
 130db64: f00143bb     	adrp	x27, 0x3b84000 <crypto/internal/fips140deps/cpu.S390XHasSHA3>
 130db68: b94a7364     	ldr	w4, [x27, #0xa70]
 130db6c: 35000064     	cbnz	w4, 0x130db78 <main.main+0x1758>
 130db70: f9412fe1     	ldr	x1, [sp, #0x258]
 130db74: 14000004     	b	0x130db84 <main.main+0x1764>
 130db78: 97c5eab2     	bl	0x488640 <runtime.gcWriteBarrier1>
 130db7c: f9412fe1     	ldr	x1, [sp, #0x258]
 130db80: f9000321     	str	x1, [x25]
 130db84: f9014fe0     	str	x0, [sp, #0x298]
 130db88: f9000401     	str	x1, [x0, #0x8]
 130db8c: 90001e00     	adrp	x0, 0x16cd000 <type:*+0x297180>
 130db90: 91290000     	add	x0, x0, #0xa40
 130db94: 97c43e6f     	bl	0x41d550 <runtime.newobject>
 130db98: 90000041     	adrp	x1, 0x1315000 <main.main.(*Api).Auth.func18+0x100>
 130db9c: 91360021     	add	x1, x1, #0xd80
 130dba0: f9000001     	str	x1, [x0]
 130dba4: f00143bb     	adrp	x27, 0x3b84000 <crypto/internal/fips140deps/cpu.S390XHasSHA3>
 130dba8: b94a7361     	ldr	w1, [x27, #0xa70]
 130dbac: 35000081     	cbnz	w1, 0x130dbbc <main.main+0x179c>
 130dbb0: f9412fe4     	ldr	x4, [sp, #0x258]
 130dbb4: f9414fe5     	ldr	x5, [sp, #0x298]
 130dbb8: 14000005     	b	0x130dbcc <main.main+0x17ac>
 130dbbc: 97c5eaa5     	bl	0x488650 <runtime.gcWriteBarrier2>
 130dbc0: f9412fe4     	ldr	x4, [sp, #0x258]
 130dbc4: f9414fe5     	ldr	x5, [sp, #0x298]
 130dbc8: a9001724     	stp	x4, x5, [x25]
 130dbcc: a9009404     	stp	x4, x5, [x0, #0x8]
 130dbd0: 90002bc1     	adrp	x1, 0x1885000 <go:string.*+0x5508>
 130dbd4: 912a7821     	add	x1, x1, #0xa9e
 130dbd8: b27d03e2     	orr	x2, xzr, #0x8
 130dbdc: aa0003e3     	mov	x3, x0
 130dbe0: f940b7e0     	ldr	x0, [sp, #0x168]
 130dbe4: 97f2d163     	bl	0xfc2170 <github.com/gorilla/mux.(*Router).HandleFunc>
 130dbe8: f90143e0     	str	x0, [sp, #0x280]
 130dbec: b00012e0     	adrp	x0, 0x156a000 <type:*+0x134180>
 130dbf0: 91040000     	add	x0, x0, #0x100
 130dbf4: 97c43e57     	bl	0x41d550 <runtime.newobject>
 130dbf8: d0002b84     	adrp	x4, 0x187f000 <type:*+0x449180>
 130dbfc: 913b8484     	add	x4, x4, #0xee1
 130dc00: b24007e5     	orr	x5, xzr, #0x3
 130dc04: a9001404     	stp	x4, x5, [x0]
 130dc08: f0002b84     	adrp	x4, 0x1880000 <go:string.*+0x508>
 130dc0c: 91147484     	add	x4, x4, #0x51d
 130dc10: b27e03e5     	orr	x5, xzr, #0x4
 130dc14: a9011404     	stp	x4, x5, [x0, #0x10]
 130dc18: aa0003e1     	mov	x1, x0
 130dc1c: b27f03e2     	orr	x2, xzr, #0x2
 130dc20: aa0203e3     	mov	x3, x2
 130dc24: f94143e0     	ldr	x0, [sp, #0x280]
 130dc28: 97f2e532     	bl	0xfc70f0 <github.com/gorilla/mux.(*Route).Methods>
 130dc2c: d0001a80     	adrp	x0, 0x165f000 <type:*+0x229180>
 130dc30: 91048000     	add	x0, x0, #0x120
 130dc34: 97c43e47     	bl	0x41d550 <runtime.newobject>
 130dc38: d0000044     	adrp	x4, 0x1317000 <github.com/coroot/enterprise/api.(*Api).SamlACS-fm+0x30>
 130dc3c: 91168084     	add	x4, x4, #0x5a0
 130dc40: f9000004     	str	x4, [x0]
 130dc44: f00143bb     	adrp	x27, 0x3b84000 <crypto/internal/fips140deps/cpu.S390XHasSHA3>
 130dc48: b94a7364     	ldr	w4, [x27, #0xa70]
 130dc4c: 35000064     	cbnz	w4, 0x130dc58 <main.main+0x1838>
 130dc50: f9412fe1     	ldr	x1, [sp, #0x258]
 130dc54: 14000004     	b	0x130dc64 <main.main+0x1844>
 130dc58: 97c5ea7a     	bl	0x488640 <runtime.gcWriteBarrier1>
 130dc5c: f9412fe1     	ldr	x1, [sp, #0x258]
 130dc60: f9000321     	str	x1, [x25]
 130dc64: f9014fe0     	str	x0, [sp, #0x298]
 130dc68: f9000401     	str	x1, [x0, #0x8]
 130dc6c: 90001e00     	adrp	x0, 0x16cd000 <type:*+0x297180>
 130dc70: 91290000     	add	x0, x0, #0xa40
 130dc74: 97c43e37     	bl	0x41d550 <runtime.newobject>
 130dc78: 90000041     	adrp	x1, 0x1315000 <main.main.(*Api).Auth.func18+0x100>
 130dc7c: 912ec021     	add	x1, x1, #0xbb0
 130dc80: f9000001     	str	x1, [x0]
 130dc84: f00143bb     	adrp	x27, 0x3b84000 <crypto/internal/fips140deps/cpu.S390XHasSHA3>
 130dc88: b94a7361     	ldr	w1, [x27, #0xa70]
 130dc8c: 35000081     	cbnz	w1, 0x130dc9c <main.main+0x187c>
 130dc90: f9412fe4     	ldr	x4, [sp, #0x258]
 130dc94: f9414fe5     	ldr	x5, [sp, #0x298]
 130dc98: 14000005     	b	0x130dcac <main.main+0x188c>
 130dc9c: 97c5ea6d     	bl	0x488650 <runtime.gcWriteBarrier2>
 130dca0: f9412fe4     	ldr	x4, [sp, #0x258]
 130dca4: f9414fe5     	ldr	x5, [sp, #0x298]
 130dca8: a9001724     	stp	x4, x5, [x25]
 130dcac: a9009404     	stp	x4, x5, [x0, #0x8]
 130dcb0: f0002ba1     	adrp	x1, 0x1884000 <go:string.*+0x4508>
 130dcb4: 91031421     	add	x1, x1, #0xc5
 130dcb8: b2400be2     	orr	x2, xzr, #0x7
 130dcbc: aa0003e3     	mov	x3, x0
 130dcc0: f940b7e0     	ldr	x0, [sp, #0x168]
 130dcc4: 97f2d12b     	bl	0xfc2170 <github.com/gorilla/mux.(*Router).HandleFunc>
 130dcc8: f90143e0     	str	x0, [sp, #0x280]
 130dccc: b00012e0     	adrp	x0, 0x156a000 <type:*+0x134180>
 130dcd0: 91040000     	add	x0, x0, #0x100
 130dcd4: 97c43e1f     	bl	0x41d550 <runtime.newobject>
 130dcd8: d0002b84     	adrp	x4, 0x187f000 <type:*+0x449180>
 130dcdc: 913b8484     	add	x4, x4, #0xee1
 130dce0: b24007e5     	orr	x5, xzr, #0x3
 130dce4: a9001404     	stp	x4, x5, [x0]
 130dce8: f0002b84     	adrp	x4, 0x1880000 <go:string.*+0x508>
 130dcec: 91147484     	add	x4, x4, #0x51d
 130dcf0: b27e03e5     	orr	x5, xzr, #0x4
 130dcf4: a9011404     	stp	x4, x5, [x0, #0x10]
 130dcf8: aa0003e1     	mov	x1, x0
 130dcfc: b27f03e2     	orr	x2, xzr, #0x2
 130dd00: aa0203e3     	mov	x3, x2
 130dd04: f94143e0     	ldr	x0, [sp, #0x280]
 130dd08: 97f2e4fa     	bl	0xfc70f0 <github.com/gorilla/mux.(*Route).Methods>
 130dd0c: d0001a80     	adrp	x0, 0x165f000 <type:*+0x229180>
 130dd10: 91028000     	add	x0, x0, #0xa0
 130dd14: 97c43e0f     	bl	0x41d550 <runtime.newobject>
 130dd18: d0000044     	adrp	x4, 0x1317000 <github.com/coroot/enterprise/api.(*Api).SamlACS-fm+0x30>
 130dd1c: 9118c084     	add	x4, x4, #0x630
 130dd20: f9000004     	str	x4, [x0]
 130dd24: f9412fe4     	ldr	x4, [sp, #0x258]
 130dd28: f9400485     	ldr	x5, [x4, #0x8]
 130dd2c: f00143bb     	adrp	x27, 0x3b84000 <crypto/internal/fips140deps/cpu.S390XHasSHA3>
 130dd30: b94a7366     	ldr	w6, [x27, #0xa70]
 130dd34: 34000066     	cbz	w6, 0x130dd40 <main.main+0x1920>
 130dd38: 97c5ea42     	bl	0x488640 <runtime.gcWriteBarrier1>
 130dd3c: f9000325     	str	x5, [x25]
 130dd40: f9013fe0     	str	x0, [sp, #0x278]
 130dd44: f9000405     	str	x5, [x0, #0x8]
 130dd48: 90001e00     	adrp	x0, 0x16cd000 <type:*+0x297180>
 130dd4c: 91290000     	add	x0, x0, #0xa40
 130dd50: 97c43e00     	bl	0x41d550 <runtime.newobject>
 130dd54: 90000041     	adrp	x1, 0x1315000 <main.main.(*Api).Auth.func18+0x100>
 130dd58: 91278021     	add	x1, x1, #0x9e0
 130dd5c: f9000001     	str	x1, [x0]
 130dd60: f00143bb     	adrp	x27, 0x3b84000 <crypto/internal/fips140deps/cpu.S390XHasSHA3>
 130dd64: b94a7361     	ldr	w1, [x27, #0xa70]
 130dd68: 35000081     	cbnz	w1, 0x130dd78 <main.main+0x1958>
 130dd6c: f9412fe4     	ldr	x4, [sp, #0x258]
 130dd70: f9413fe5     	ldr	x5, [sp, #0x278]
 130dd74: 14000005     	b	0x130dd88 <main.main+0x1968>
 130dd78: 97c5ea36     	bl	0x488650 <runtime.gcWriteBarrier2>
 130dd7c: f9412fe4     	ldr	x4, [sp, #0x258]
 130dd80: f9413fe5     	ldr	x5, [sp, #0x278]
 130dd84: a9001724     	stp	x4, x5, [x25]
 130dd88: a9009404     	stp	x4, x5, [x0, #0x8]
 130dd8c: f0002bc1     	adrp	x1, 0x1888000 <go:string.*+0x8508>
 130dd90: 911c1821     	add	x1, x1, #0x706
 130dd94: d2800142     	mov	x2, #0xa                // =10
 130dd98: aa0003e3     	mov	x3, x0
 130dd9c: f940b7e0     	ldr	x0, [sp, #0x168]
 130dda0: 97f2d0f4     	bl	0xfc2170 <github.com/gorilla/mux.(*Router).HandleFunc>
 130dda4: f90143e0     	str	x0, [sp, #0x280]
 130dda8: b00012e0     	adrp	x0, 0x156a000 <type:*+0x134180>
 130ddac: 91040000     	add	x0, x0, #0x100
 130ddb0: 97c43de8     	bl	0x41d550 <runtime.newobject>
 130ddb4: d0002b84     	adrp	x4, 0x187f000 <type:*+0x449180>
 130ddb8: 913b8484     	add	x4, x4, #0xee1
 130ddbc: b24007e5     	orr	x5, xzr, #0x3
 130ddc0: a9001404     	stp	x4, x5, [x0]
 130ddc4: f0002b84     	adrp	x4, 0x1880000 <go:string.*+0x508>
 130ddc8: 91147484     	add	x4, x4, #0x51d
 130ddcc: b27e03e5     	orr	x5, xzr, #0x4
 130ddd0: a9011404     	stp	x4, x5, [x0, #0x10]
 130ddd4: aa0003e1     	mov	x1, x0
 130ddd8: b27f03e2     	orr	x2, xzr, #0x2
 130dddc: aa0203e3     	mov	x3, x2
 130dde0: f94143e0     	ldr	x0, [sp, #0x280]
 130dde4: 97f2e4c3     	bl	0xfc70f0 <github.com/gorilla/mux.(*Route).Methods>
 130dde8: d0001a80     	adrp	x0, 0x165f000 <type:*+0x229180>
 130ddec: 91028000     	add	x0, x0, #0xa0
 130ddf0: 97c43dd8     	bl	0x41d550 <runtime.newobject>
 130ddf4: d0000044     	adrp	x4, 0x1317000 <github.com/coroot/enterprise/api.(*Api).SamlACS-fm+0x30>
 130ddf8: 911b0084     	add	x4, x4, #0x6c0
 130ddfc: f9000004     	str	x4, [x0]
 130de00: f9412fe5     	ldr	x5, [sp, #0x258]
 130de04: f94004a6     	ldr	x6, [x5, #0x8]
 130de08: f00143bb     	adrp	x27, 0x3b84000 <crypto/internal/fips140deps/cpu.S390XHasSHA3>
 130de0c: b94a7367     	ldr	w7, [x27, #0xa70]
 130de10: 34000067     	cbz	w7, 0x130de1c <main.main+0x19fc>
 130de14: 97c5ea0b     	bl	0x488640 <runtime.gcWriteBarrier1>
 130de18: f9000326     	str	x6, [x25]
 130de1c: f9013fe0     	str	x0, [sp, #0x278]
 130de20: f9000406     	str	x6, [x0, #0x8]
 130de24: 90001e00     	adrp	x0, 0x16cd000 <type:*+0x297180>
 130de28: 91290000     	add	x0, x0, #0xa40
 130de2c: 97c43dc9     	bl	0x41d550 <runtime.newobject>
 130de30: 90000041     	adrp	x1, 0x1315000 <main.main.(*Api).Auth.func18+0x100>
 130de34: 91204021     	add	x1, x1, #0x810
 130de38: f9000001     	str	x1, [x0]
 130de3c: f00143bb     	adrp	x27, 0x3b84000 <crypto/internal/fips140deps/cpu.S390XHasSHA3>
 130de40: b94a7361     	ldr	w1, [x27, #0xa70]
 130de44: 35000081     	cbnz	w1, 0x130de54 <main.main+0x1a34>
 130de48: f9412fe4     	ldr	x4, [sp, #0x258]
 130de4c: f9413fe5     	ldr	x5, [sp, #0x278]
 130de50: 14000005     	b	0x130de64 <main.main+0x1a44>
 130de54: 97c5e9ff     	bl	0x488650 <runtime.gcWriteBarrier2>
 130de58: f9412fe4     	ldr	x4, [sp, #0x258]
 130de5c: f9413fe5     	ldr	x5, [sp, #0x278]
 130de60: a9001724     	stp	x4, x5, [x25]
 130de64: a9009404     	stp	x4, x5, [x0, #0x8]
 130de68: f0002be1     	adrp	x1, 0x188c000 <go:string.*+0xc508>
 130de6c: 91252821     	add	x1, x1, #0x94a
 130de70: d28001a2     	mov	x2, #0xd                // =13
 130de74: aa0003e3     	mov	x3, x0
 130de78: f940b7e0     	ldr	x0, [sp, #0x168]
 130de7c: 97f2d0bd     	bl	0xfc2170 <github.com/gorilla/mux.(*Router).HandleFunc>
 130de80: f90143e0     	str	x0, [sp, #0x280]
 130de84: b00012e0     	adrp	x0, 0x156a000 <type:*+0x134180>
 130de88: 91040000     	add	x0, x0, #0x100
 130de8c: 97c43db1     	bl	0x41d550 <runtime.newobject>
 130de90: d0002b84     	adrp	x4, 0x187f000 <type:*+0x449180>
 130de94: 913b8484     	add	x4, x4, #0xee1
 130de98: b24007e5     	orr	x5, xzr, #0x3
 130de9c: a9001404     	stp	x4, x5, [x0]
 130dea0: f0002b84     	adrp	x4, 0x1880000 <go:string.*+0x508>
 130dea4: 91147484     	add	x4, x4, #0x51d
 130dea8: b27e03e5     	orr	x5, xzr, #0x4
 130deac: a9011404     	stp	x4, x5, [x0, #0x10]
 130deb0: aa0003e1     	mov	x1, x0
 130deb4: b27f03e2     	orr	x2, xzr, #0x2
 130deb8: aa0203e3     	mov	x3, x2
 130debc: f94143e0     	ldr	x0, [sp, #0x280]
 130dec0: 97f2e48c     	bl	0xfc70f0 <github.com/gorilla/mux.(*Route).Methods>
 130dec4: d0001a80     	adrp	x0, 0x165f000 <type:*+0x229180>
 130dec8: 91028000     	add	x0, x0, #0xa0
 130decc: 97c43da1     	bl	0x41d550 <runtime.newobject>
 130ded0: d0000044     	adrp	x4, 0x1317000 <github.com/coroot/enterprise/api.(*Api).SamlACS-fm+0x30>
 130ded4: 911b0084     	add	x4, x4, #0x6c0
 130ded8: f9000004     	str	x4, [x0]
 130dedc: f9412fe4     	ldr	x4, [sp, #0x258]
 130dee0: f9400485     	ldr	x5, [x4, #0x8]
 130dee4: f00143bb     	adrp	x27, 0x3b84000 <crypto/internal/fips140deps/cpu.S390XHasSHA3>
 130dee8: b94a7366     	ldr	w6, [x27, #0xa70]
 130deec: 34000066     	cbz	w6, 0x130def8 <main.main+0x1ad8>
 130def0: 97c5e9d4     	bl	0x488640 <runtime.gcWriteBarrier1>
 130def4: f9000325     	str	x5, [x25]
 130def8: f9013fe0     	str	x0, [sp, #0x278]
 130defc: f9000405     	str	x5, [x0, #0x8]
 130df00: 90001e00     	adrp	x0, 0x16cd000 <type:*+0x297180>
 130df04: 91290000     	add	x0, x0, #0xa40
 130df08: 97c43d92     	bl	0x41d550 <runtime.newobject>
 130df0c: 90000041     	adrp	x1, 0x1315000 <main.main.(*Api).Auth.func18+0x100>
 130df10: 91190021     	add	x1, x1, #0x640
 130df14: f9000001     	str	x1, [x0]
 130df18: f00143bb     	adrp	x27, 0x3b84000 <crypto/internal/fips140deps/cpu.S390XHasSHA3>
 130df1c: b94a7361     	ldr	w1, [x27, #0xa70]
 130df20: 35000081     	cbnz	w1, 0x130df30 <main.main+0x1b10>
 130df24: f9412fe4     	ldr	x4, [sp, #0x258]
 130df28: f9413fe5     	ldr	x5, [sp, #0x278]
 130df2c: 14000005     	b	0x130df40 <main.main+0x1b20>
 130df30: 97c5e9c8     	bl	0x488650 <runtime.gcWriteBarrier2>
 130df34: f9412fe4     	ldr	x4, [sp, #0x258]
 130df38: f9413fe5     	ldr	x5, [sp, #0x278]
 130df3c: a9001724     	stp	x4, x5, [x25]
 130df40: a9009404     	stp	x4, x5, [x0, #0x8]
 130df44: d0002c61     	adrp	x1, 0x189b000 <go:string.*+0x1b508>
 130df48: 91291c21     	add	x1, x1, #0xa47
 130df4c: d28002c2     	mov	x2, #0x16               // =22
 130df50: aa0003e3     	mov	x3, x0
 130df54: f940b7e0     	ldr	x0, [sp, #0x168]
 130df58: 97f2d086     	bl	0xfc2170 <github.com/gorilla/mux.(*Router).HandleFunc>
 130df5c: f90143e0     	str	x0, [sp, #0x280]
 130df60: b00012e0     	adrp	x0, 0x156a000 <type:*+0x134180>
 130df64: 91088000     	add	x0, x0, #0x220
 130df68: 97c43d7a     	bl	0x41d550 <runtime.newobject>
 130df6c: d0002b84     	adrp	x4, 0x187f000 <type:*+0x449180>
 130df70: 913b8484     	add	x4, x4, #0xee1
 130df74: b24007e3     	orr	x3, xzr, #0x3
 130df78: a9000c04     	stp	x4, x3, [x0]
 130df7c: f0002b84     	adrp	x4, 0x1880000 <go:string.*+0x508>
 130df80: 91147484     	add	x4, x4, #0x51d
 130df84: b27e03e5     	orr	x5, xzr, #0x4
 130df88: a9011404     	stp	x4, x5, [x0, #0x10]
 130df8c: b0002ba4     	adrp	x4, 0x1882000 <go:string.*+0x2508>
 130df90: 911f8c84     	add	x4, x4, #0x7e3
 130df94: b27f07e5     	orr	x5, xzr, #0x6
 130df98: a9021404     	stp	x4, x5, [x0, #0x20]
 130df9c: aa0003e1     	mov	x1, x0
 130dfa0: aa0303e2     	mov	x2, x3
 130dfa4: f94143e0     	ldr	x0, [sp, #0x280]
 130dfa8: 97f2e452     	bl	0xfc70f0 <github.com/gorilla/mux.(*Route).Methods>
 130dfac: d0001a80     	adrp	x0, 0x165f000 <type:*+0x229180>
 130dfb0: 91028000     	add	x0, x0, #0xa0
 130dfb4: 97c43d67     	bl	0x41d550 <runtime.newobject>
 130dfb8: d0000044     	adrp	x4, 0x1317000 <github.com/coroot/enterprise/api.(*Api).SamlACS-fm+0x30>
 130dfbc: 911d4084     	add	x4, x4, #0x750
 130dfc0: f9000004     	str	x4, [x0]
 130dfc4: f9412fe4     	ldr	x4, [sp, #0x258]
 130dfc8: f9400485     	ldr	x5, [x4, #0x8]
 130dfcc: f00143bb     	adrp	x27, 0x3b84000 <crypto/internal/fips140deps/cpu.S390XHasSHA3>
 130dfd0: b94a7366     	ldr	w6, [x27, #0xa70]
 130dfd4: 34000066     	cbz	w6, 0x130dfe0 <main.main+0x1bc0>
 130dfd8: 97c5e99a     	bl	0x488640 <runtime.gcWriteBarrier1>
 130dfdc: f9000325     	str	x5, [x25]
 130dfe0: f9013fe0     	str	x0, [sp, #0x278]
 130dfe4: f9000405     	str	x5, [x0, #0x8]
 130dfe8: 90001e00     	adrp	x0, 0x16cd000 <type:*+0x297180>
 130dfec: 91290000     	add	x0, x0, #0xa40
 130dff0: 97c43d58     	bl	0x41d550 <runtime.newobject>
 130dff4: 90000041     	adrp	x1, 0x1315000 <main.main.(*Api).Auth.func18+0x100>
 130dff8: 9111c021     	add	x1, x1, #0x470
 130dffc: f9000001     	str	x1, [x0]
 130e000: d00143bb     	adrp	x27, 0x3b84000 <crypto/internal/fips140deps/cpu.S390XHasSHA3>
 130e004: b94a7361     	ldr	w1, [x27, #0xa70]
 130e008: 35000081     	cbnz	w1, 0x130e018 <main.main+0x1bf8>
 130e00c: f9412fe4     	ldr	x4, [sp, #0x258]
 130e010: f9413fe5     	ldr	x5, [sp, #0x278]
 130e014: 14000005     	b	0x130e028 <main.main+0x1c08>
 130e018: 97c5e98e     	bl	0x488650 <runtime.gcWriteBarrier2>
 130e01c: f9412fe4     	ldr	x4, [sp, #0x258]
 130e020: f9413fe5     	ldr	x5, [sp, #0x278]
 130e024: a9001724     	stp	x4, x5, [x25]
 130e028: a9009404     	stp	x4, x5, [x0, #0x8]
 130e02c: d0002cc1     	adrp	x1, 0x18a8000 <go:string.*+0x28508>
 130e030: 912e3821     	add	x1, x1, #0xb8e
 130e034: d28003a2     	mov	x2, #0x1d               // =29
 130e038: aa0003e3     	mov	x3, x0
 130e03c: f940b7e0     	ldr	x0, [sp, #0x168]
 130e040: 97f2d04c     	bl	0xfc2170 <github.com/gorilla/mux.(*Router).HandleFunc>
 130e044: f90143e0     	str	x0, [sp, #0x280]
 130e048: 900012e0     	adrp	x0, 0x156a000 <type:*+0x134180>
 130e04c: 91010000     	add	x0, x0, #0x40
 130e050: 97c43d40     	bl	0x41d550 <runtime.newobject>
 130e054: b0002b84     	adrp	x4, 0x187f000 <type:*+0x449180>
 130e058: 913b8484     	add	x4, x4, #0xee1
 130e05c: b24007e5     	orr	x5, xzr, #0x3
 130e060: a9001404     	stp	x4, x5, [x0]
 130e064: aa0003e1     	mov	x1, x0
 130e068: b24003e2     	orr	x2, xzr, #0x1
 130e06c: aa0203e3     	mov	x3, x2
 130e070: f94143e0     	ldr	x0, [sp, #0x280]
 130e074: 97f2e41f     	bl	0xfc70f0 <github.com/gorilla/mux.(*Route).Methods>
 130e078: b0001a80     	adrp	x0, 0x165f000 <type:*+0x229180>
 130e07c: 91028000     	add	x0, x0, #0xa0
 130e080: 97c43d34     	bl	0x41d550 <runtime.newobject>
 130e084: b0000044     	adrp	x4, 0x1317000 <github.com/coroot/enterprise/api.(*Api).SamlACS-fm+0x30>
 130e088: 911f8084     	add	x4, x4, #0x7e0
 130e08c: f9000004     	str	x4, [x0]
 130e090: f9412fe4     	ldr	x4, [sp, #0x258]
 130e094: f9400485     	ldr	x5, [x4, #0x8]
 130e098: d00143bb     	adrp	x27, 0x3b84000 <crypto/internal/fips140deps/cpu.S390XHasSHA3>
 130e09c: b94a7366     	ldr	w6, [x27, #0xa70]
 130e0a0: 34000066     	cbz	w6, 0x130e0ac <main.main+0x1c8c>
 130e0a4: 97c5e967     	bl	0x488640 <runtime.gcWriteBarrier1>
 130e0a8: f9000325     	str	x5, [x25]
 130e0ac: f9013fe0     	str	x0, [sp, #0x278]
 130e0b0: f9000405     	str	x5, [x0, #0x8]
 130e0b4: f0001de0     	adrp	x0, 0x16cd000 <type:*+0x297180>
 130e0b8: 91290000     	add	x0, x0, #0xa40
 130e0bc: 97c43d25     	bl	0x41d550 <runtime.newobject>
 130e0c0: f0000021     	adrp	x1, 0x1315000 <main.main.(*Api).Auth.func18+0x100>
 130e0c4: 910a8021     	add	x1, x1, #0x2a0
 130e0c8: f9000001     	str	x1, [x0]
 130e0cc: d00143bb     	adrp	x27, 0x3b84000 <crypto/internal/fips140deps/cpu.S390XHasSHA3>
 130e0d0: b94a7361     	ldr	w1, [x27, #0xa70]
 130e0d4: 35000081     	cbnz	w1, 0x130e0e4 <main.main+0x1cc4>
 130e0d8: f9412fe4     	ldr	x4, [sp, #0x258]
 130e0dc: f9413fe5     	ldr	x5, [sp, #0x278]
 130e0e0: 14000005     	b	0x130e0f4 <main.main+0x1cd4>
 130e0e4: 97c5e95b     	bl	0x488650 <runtime.gcWriteBarrier2>
 130e0e8: f9412fe4     	ldr	x4, [sp, #0x258]
 130e0ec: f9413fe5     	ldr	x5, [sp, #0x278]
 130e0f0: a9001724     	stp	x4, x5, [x25]
 130e0f4: a9009404     	stp	x4, x5, [x0, #0x8]
 130e0f8: d0002ce1     	adrp	x1, 0x18ac000 <go:string.*+0x2c508>
 130e0fc: 91378821     	add	x1, x1, #0xde2
 130e100: b24013e2     	orr	x2, xzr, #0x1f
 130e104: aa0003e3     	mov	x3, x0
 130e108: f940b7e0     	ldr	x0, [sp, #0x168]
 130e10c: 97f2d019     	bl	0xfc2170 <github.com/gorilla/mux.(*Router).HandleFunc>
 130e110: f90143e0     	str	x0, [sp, #0x280]
 130e114: 900012e0     	adrp	x0, 0x156a000 <type:*+0x134180>
 130e118: 91040000     	add	x0, x0, #0x100
 130e11c: 97c43d0d     	bl	0x41d550 <runtime.newobject>
 130e120: b0002b84     	adrp	x4, 0x187f000 <type:*+0x449180>
 130e124: 913b8484     	add	x4, x4, #0xee1
 130e128: b24007e5     	orr	x5, xzr, #0x3
 130e12c: a9001404     	stp	x4, x5, [x0]
 130e130: d0002b84     	adrp	x4, 0x1880000 <go:string.*+0x508>
 130e134: 91147484     	add	x4, x4, #0x51d
 130e138: b27e03e5     	orr	x5, xzr, #0x4
 130e13c: a9011404     	stp	x4, x5, [x0, #0x10]
 130e140: aa0003e1     	mov	x1, x0
 130e144: b27f03e2     	orr	x2, xzr, #0x2
 130e148: aa0203e3     	mov	x3, x2
 130e14c: f94143e0     	ldr	x0, [sp, #0x280]
 130e150: 97f2e3e8     	bl	0xfc70f0 <github.com/gorilla/mux.(*Route).Methods>
 130e154: b0001a80     	adrp	x0, 0x165f000 <type:*+0x229180>
 130e158: 91048000     	add	x0, x0, #0x120
 130e15c: 97c43cfd     	bl	0x41d550 <runtime.newobject>
 130e160: b0000044     	adrp	x4, 0x1317000 <github.com/coroot/enterprise/api.(*Api).SamlACS-fm+0x30>
 130e164: 9121c084     	add	x4, x4, #0x870
 130e168: f9000004     	str	x4, [x0]
 130e16c: d00143bb     	adrp	x27, 0x3b84000 <crypto/internal/fips140deps/cpu.S390XHasSHA3>
 130e170: b94a7364     	ldr	w4, [x27, #0xa70]
 130e174: 35000064     	cbnz	w4, 0x130e180 <main.main+0x1d60>
 130e178: f9412fe1     	ldr	x1, [sp, #0x258]
 130e17c: 14000004     	b	0x130e18c <main.main+0x1d6c>
 130e180: 97c5e930     	bl	0x488640 <runtime.gcWriteBarrier1>
 130e184: f9412fe1     	ldr	x1, [sp, #0x258]
 130e188: f9000321     	str	x1, [x25]
 130e18c: f9014fe0     	str	x0, [sp, #0x298]
 130e190: f9000401     	str	x1, [x0, #0x8]
 130e194: f0001de0     	adrp	x0, 0x16cd000 <type:*+0x297180>
 130e198: 91290000     	add	x0, x0, #0xa40
 130e19c: 97c43ced     	bl	0x41d550 <runtime.newobject>
 130e1a0: f0000021     	adrp	x1, 0x1315000 <main.main.(*Api).Auth.func18+0x100>
 130e1a4: 91034021     	add	x1, x1, #0xd0
 130e1a8: f9000001     	str	x1, [x0]
 130e1ac: d00143bb     	adrp	x27, 0x3b84000 <crypto/internal/fips140deps/cpu.S390XHasSHA3>
 130e1b0: b94a7361     	ldr	w1, [x27, #0xa70]
 130e1b4: 35000081     	cbnz	w1, 0x130e1c4 <main.main+0x1da4>
 130e1b8: f9412fe4     	ldr	x4, [sp, #0x258]
 130e1bc: f9414fe5     	ldr	x5, [sp, #0x298]
 130e1c0: 14000005     	b	0x130e1d4 <main.main+0x1db4>
 130e1c4: 97c5e923     	bl	0x488650 <runtime.gcWriteBarrier2>
 130e1c8: f9412fe4     	ldr	x4, [sp, #0x258]
 130e1cc: f9414fe5     	ldr	x5, [sp, #0x298]
 130e1d0: a9001724     	stp	x4, x5, [x25]
 130e1d4: a9009404     	stp	x4, x5, [x0, #0x8]
 130e1d8: d0002d81     	adrp	x1, 0x18c0000 <go:string.*+0x40508>
 130e1dc: 910cc021     	add	x1, x1, #0x330
 130e1e0: d2800522     	mov	x2, #0x29               // =41
 130e1e4: aa0003e3     	mov	x3, x0
 130e1e8: f940b7e0     	ldr	x0, [sp, #0x168]
 130e1ec: 97f2cfe1     	bl	0xfc2170 <github.com/gorilla/mux.(*Router).HandleFunc>
 130e1f0: f90143e0     	str	x0, [sp, #0x280]
 130e1f4: 900012e0     	adrp	x0, 0x156a000 <type:*+0x134180>
 130e1f8: 91010000     	add	x0, x0, #0x40
 130e1fc: 97c43cd5     	bl	0x41d550 <runtime.newobject>
 130e200: b0002b84     	adrp	x4, 0x187f000 <type:*+0x449180>
 130e204: 913b8484     	add	x4, x4, #0xee1
 130e208: b24007e5     	orr	x5, xzr, #0x3
 130e20c: a9001404     	stp	x4, x5, [x0]
 130e210: aa0003e1     	mov	x1, x0
 130e214: b24003e2     	orr	x2, xzr, #0x1
 130e218: aa0203e3     	mov	x3, x2
 130e21c: f94143e0     	ldr	x0, [sp, #0x280]
 130e220: 97f2e3b4     	bl	0xfc70f0 <github.com/gorilla/mux.(*Route).Methods>
 130e224: b0001a80     	adrp	x0, 0x165f000 <type:*+0x229180>
 130e228: 91028000     	add	x0, x0, #0xa0
 130e22c: 97c43cc9     	bl	0x41d550 <runtime.newobject>
 130e230: b0000044     	adrp	x4, 0x1317000 <github.com/coroot/enterprise/api.(*Api).SamlACS-fm+0x30>
 130e234: 91240084     	add	x4, x4, #0x900
 130e238: f9000004     	str	x4, [x0]
 130e23c: f9412fe4     	ldr	x4, [sp, #0x258]
 130e240: f9400485     	ldr	x5, [x4, #0x8]
 130e244: d00143bb     	adrp	x27, 0x3b84000 <crypto/internal/fips140deps/cpu.S390XHasSHA3>
 130e248: b94a7366     	ldr	w6, [x27, #0xa70]
 130e24c: 34000066     	cbz	w6, 0x130e258 <main.main+0x1e38>
 130e250: 97c5e8fc     	bl	0x488640 <runtime.gcWriteBarrier1>
 130e254: f9000325     	str	x5, [x25]
 130e258: f9013fe0     	str	x0, [sp, #0x278]
 130e25c: f9000405     	str	x5, [x0, #0x8]
 130e260: f0001de0     	adrp	x0, 0x16cd000 <type:*+0x297180>
 130e264: 91290000     	add	x0, x0, #0xa40
 130e268: 97c43cba     	bl	0x41d550 <runtime.newobject>
 130e26c: d0000021     	adrp	x1, 0x1314000 <main.main.(*Api).Auth.func27+0x150>
 130e270: 913c0021     	add	x1, x1, #0xf00
 130e274: f9000001     	str	x1, [x0]
 130e278: d00143bb     	adrp	x27, 0x3b84000 <crypto/internal/fips140deps/cpu.S390XHasSHA3>
 130e27c: b94a7361     	ldr	w1, [x27, #0xa70]
 130e280: 35000081     	cbnz	w1, 0x130e290 <main.main+0x1e70>
 130e284: f9412fe4     	ldr	x4, [sp, #0x258]
 130e288: f9413fe5     	ldr	x5, [sp, #0x278]
 130e28c: 14000005     	b	0x130e2a0 <main.main+0x1e80>
 130e290: 97c5e8f0     	bl	0x488650 <runtime.gcWriteBarrier2>
 130e294: f9412fe4     	ldr	x4, [sp, #0x258]
 130e298: f9413fe5     	ldr	x5, [sp, #0x278]
 130e29c: a9001724     	stp	x4, x5, [x25]
 130e2a0: a9009404     	stp	x4, x5, [x0, #0x8]
 130e2a4: b0002d61     	adrp	x1, 0x18bb000 <go:string.*+0x3b508>
 130e2a8: 9119c421     	add	x1, x1, #0x671
 130e2ac: d28004c2     	mov	x2, #0x26               // =38
 130e2b0: aa0003e3     	mov	x3, x0
 130e2b4: f940b7e0     	ldr	x0, [sp, #0x168]
 130e2b8: 97f2cfae     	bl	0xfc2170 <github.com/gorilla/mux.(*Router).HandleFunc>
 130e2bc: f90143e0     	str	x0, [sp, #0x280]
 130e2c0: 900012e0     	adrp	x0, 0x156a000 <type:*+0x134180>
 130e2c4: 91010000     	add	x0, x0, #0x40
 130e2c8: 97c43ca2     	bl	0x41d550 <runtime.newobject>
 130e2cc: b0002b84     	adrp	x4, 0x187f000 <type:*+0x449180>
 130e2d0: 913b8484     	add	x4, x4, #0xee1
 130e2d4: b24007e5     	orr	x5, xzr, #0x3
 130e2d8: a9001404     	stp	x4, x5, [x0]
 130e2dc: aa0003e1     	mov	x1, x0
 130e2e0: b24003e2     	orr	x2, xzr, #0x1
 130e2e4: aa0203e3     	mov	x3, x2
 130e2e8: f94143e0     	ldr	x0, [sp, #0x280]
 130e2ec: 97f2e381     	bl	0xfc70f0 <github.com/gorilla/mux.(*Route).Methods>
 130e2f0: b0001a80     	adrp	x0, 0x165f000 <type:*+0x229180>
 130e2f4: 91028000     	add	x0, x0, #0xa0
 130e2f8: 97c43c96     	bl	0x41d550 <runtime.newobject>
 130e2fc: b0000044     	adrp	x4, 0x1317000 <github.com/coroot/enterprise/api.(*Api).SamlACS-fm+0x30>
 130e300: 91264084     	add	x4, x4, #0x990
 130e304: f9000004     	str	x4, [x0]
 130e308: f9412fe4     	ldr	x4, [sp, #0x258]
 130e30c: f9400485     	ldr	x5, [x4, #0x8]
 130e310: d00143bb     	adrp	x27, 0x3b84000 <crypto/internal/fips140deps/cpu.S390XHasSHA3>
 130e314: b94a7366     	ldr	w6, [x27, #0xa70]
 130e318: 34000066     	cbz	w6, 0x130e324 <main.main+0x1f04>
 130e31c: 97c5e8c9     	bl	0x488640 <runtime.gcWriteBarrier1>
 130e320: f9000325     	str	x5, [x25]
 130e324: f9013fe0     	str	x0, [sp, #0x278]
 130e328: f9000405     	str	x5, [x0, #0x8]
 130e32c: f0001de0     	adrp	x0, 0x16cd000 <type:*+0x297180>
 130e330: 91290000     	add	x0, x0, #0xa40
 130e334: 97c43c87     	bl	0x41d550 <runtime.newobject>
 130e338: d0000021     	adrp	x1, 0x1314000 <main.main.(*Api).Auth.func27+0x150>
 130e33c: 9134c021     	add	x1, x1, #0xd30
 130e340: f9000001     	str	x1, [x0]
 130e344: d00143bb     	adrp	x27, 0x3b84000 <crypto/internal/fips140deps/cpu.S390XHasSHA3>
 130e348: b94a7361     	ldr	w1, [x27, #0xa70]
 130e34c: 35000081     	cbnz	w1, 0x130e35c <main.main+0x1f3c>
 130e350: f9412fe4     	ldr	x4, [sp, #0x258]
 130e354: f9413fe5     	ldr	x5, [sp, #0x278]
 130e358: 14000005     	b	0x130e36c <main.main+0x1f4c>
 130e35c: 97c5e8bd     	bl	0x488650 <runtime.gcWriteBarrier2>
 130e360: f9412fe4     	ldr	x4, [sp, #0x258]
 130e364: f9413fe5     	ldr	x5, [sp, #0x278]
 130e368: a9001724     	stp	x4, x5, [x25]
 130e36c: a9009404     	stp	x4, x5, [x0, #0x8]
 130e370: 90002d01     	adrp	x1, 0x18ae000 <go:string.*+0x2e508>
 130e374: 913bc821     	add	x1, x1, #0xef2
 130e378: b27b03e2     	orr	x2, xzr, #0x20
 130e37c: aa0003e3     	mov	x3, x0
 130e380: f940b7e0     	ldr	x0, [sp, #0x168]
 130e384: 97f2cf7b     	bl	0xfc2170 <github.com/gorilla/mux.(*Router).HandleFunc>
 130e388: f90143e0     	str	x0, [sp, #0x280]
 130e38c: 900012e0     	adrp	x0, 0x156a000 <type:*+0x134180>
 130e390: 91010000     	add	x0, x0, #0x40
 130e394: 97c43c6f     	bl	0x41d550 <runtime.newobject>
 130e398: b0002b84     	adrp	x4, 0x187f000 <type:*+0x449180>
 130e39c: 913b8484     	add	x4, x4, #0xee1
 130e3a0: b24007e5     	orr	x5, xzr, #0x3
 130e3a4: a9001404     	stp	x4, x5, [x0]
 130e3a8: aa0003e1     	mov	x1, x0
 130e3ac: b24003e2     	orr	x2, xzr, #0x1
 130e3b0: aa0203e3     	mov	x3, x2
 130e3b4: f94143e0     	ldr	x0, [sp, #0x280]
 130e3b8: 97f2e34e     	bl	0xfc70f0 <github.com/gorilla/mux.(*Route).Methods>
 130e3bc: b0001a80     	adrp	x0, 0x165f000 <type:*+0x229180>
 130e3c0: 91028000     	add	x0, x0, #0xa0
 130e3c4: 97c43c63     	bl	0x41d550 <runtime.newobject>
 130e3c8: b0000044     	adrp	x4, 0x1317000 <github.com/coroot/enterprise/api.(*Api).SamlACS-fm+0x30>
 130e3cc: 91288084     	add	x4, x4, #0xa20
 130e3d0: f9000004     	str	x4, [x0]
 130e3d4: f9412fe4     	ldr	x4, [sp, #0x258]
 130e3d8: f9400485     	ldr	x5, [x4, #0x8]
 130e3dc: d00143bb     	adrp	x27, 0x3b84000 <crypto/internal/fips140deps/cpu.S390XHasSHA3>
 130e3e0: b94a7366     	ldr	w6, [x27, #0xa70]
 130e3e4: 34000066     	cbz	w6, 0x130e3f0 <main.main+0x1fd0>
 130e3e8: 97c5e896     	bl	0x488640 <runtime.gcWriteBarrier1>
 130e3ec: f9000325     	str	x5, [x25]
 130e3f0: f9013fe0     	str	x0, [sp, #0x278]
 130e3f4: f9000405     	str	x5, [x0, #0x8]
 130e3f8: f0001de0     	adrp	x0, 0x16cd000 <type:*+0x297180>
 130e3fc: 91290000     	add	x0, x0, #0xa40
 130e400: 97c43c54     	bl	0x41d550 <runtime.newobject>
 130e404: d0000021     	adrp	x1, 0x1314000 <main.main.(*Api).Auth.func27+0x150>
 130e408: 912d8021     	add	x1, x1, #0xb60
 130e40c: f9000001     	str	x1, [x0]
 130e410: d00143bb     	adrp	x27, 0x3b84000 <crypto/internal/fips140deps/cpu.S390XHasSHA3>
 130e414: b94a7361     	ldr	w1, [x27, #0xa70]
 130e418: 35000081     	cbnz	w1, 0x130e428 <main.main+0x2008>
 130e41c: f9412fe4     	ldr	x4, [sp, #0x258]
 130e420: f9413fe5     	ldr	x5, [sp, #0x278]
 130e424: 14000005     	b	0x130e438 <main.main+0x2018>
 130e428: 97c5e88a     	bl	0x488650 <runtime.gcWriteBarrier2>
 130e42c: f9412fe4     	ldr	x4, [sp, #0x258]
 130e430: f9413fe5     	ldr	x5, [sp, #0x278]
 130e434: a9001724     	stp	x4, x5, [x25]
 130e438: a9009404     	stp	x4, x5, [x0, #0x8]
 130e43c: f0002d81     	adrp	x1, 0x18c1000 <go:string.*+0x41508>
 130e440: 913a4c21     	add	x1, x1, #0xe93
 130e444: d2800542     	mov	x2, #0x2a               // =42
 130e448: aa0003e3     	mov	x3, x0
 130e44c: f940b7e0     	ldr	x0, [sp, #0x168]
 130e450: 97f2cf48     	bl	0xfc2170 <github.com/gorilla/mux.(*Router).HandleFunc>
 130e454: f90143e0     	str	x0, [sp, #0x280]
 130e458: 900012e0     	adrp	x0, 0x156a000 <type:*+0x134180>
 130e45c: 91010000     	add	x0, x0, #0x40
 130e460: 97c43c3c     	bl	0x41d550 <runtime.newobject>
 130e464: b0002b84     	adrp	x4, 0x187f000 <type:*+0x449180>
 130e468: 913b8484     	add	x4, x4, #0xee1
 130e46c: b24007e5     	orr	x5, xzr, #0x3
 130e470: a9001404     	stp	x4, x5, [x0]
 130e474: aa0003e1     	mov	x1, x0
 130e478: b24003e2     	orr	x2, xzr, #0x1
 130e47c: aa0203e3     	mov	x3, x2
 130e480: f94143e0     	ldr	x0, [sp, #0x280]
 130e484: 97f2e31b     	bl	0xfc70f0 <github.com/gorilla/mux.(*Route).Methods>
 130e488: b0001a80     	adrp	x0, 0x165f000 <type:*+0x229180>
 130e48c: 91028000     	add	x0, x0, #0xa0
 130e490: 97c43c30     	bl	0x41d550 <runtime.newobject>
 130e494: b0000044     	adrp	x4, 0x1317000 <github.com/coroot/enterprise/api.(*Api).SamlACS-fm+0x30>
 130e498: 912ac084     	add	x4, x4, #0xab0
 130e49c: f9000004     	str	x4, [x0]
 130e4a0: f9412fe5     	ldr	x5, [sp, #0x258]
 130e4a4: f94004a6     	ldr	x6, [x5, #0x8]
 130e4a8: d00143bb     	adrp	x27, 0x3b84000 <crypto/internal/fips140deps/cpu.S390XHasSHA3>
 130e4ac: b94a7367     	ldr	w7, [x27, #0xa70]
 130e4b0: 34000067     	cbz	w7, 0x130e4bc <main.main+0x209c>
 130e4b4: 97c5e863     	bl	0x488640 <runtime.gcWriteBarrier1>
 130e4b8: f9000326     	str	x6, [x25]
 130e4bc: f9013fe0     	str	x0, [sp, #0x278]
 130e4c0: f9000406     	str	x6, [x0, #0x8]
 130e4c4: f0001de0     	adrp	x0, 0x16cd000 <type:*+0x297180>
 130e4c8: 91290000     	add	x0, x0, #0xa40
 130e4cc: 97c43c21     	bl	0x41d550 <runtime.newobject>
 130e4d0: d0000021     	adrp	x1, 0x1314000 <main.main.(*Api).Auth.func27+0x150>
 130e4d4: 91264021     	add	x1, x1, #0x990
 130e4d8: f9000001     	str	x1, [x0]
 130e4dc: d00143bb     	adrp	x27, 0x3b84000 <crypto/internal/fips140deps/cpu.S390XHasSHA3>
 130e4e0: b94a7361     	ldr	w1, [x27, #0xa70]
 130e4e4: 35000081     	cbnz	w1, 0x130e4f4 <main.main+0x20d4>
 130e4e8: f9412fe4     	ldr	x4, [sp, #0x258]
 130e4ec: f9413fe5     	ldr	x5, [sp, #0x278]
 130e4f0: 14000005     	b	0x130e504 <main.main+0x20e4>
 130e4f4: 97c5e857     	bl	0x488650 <runtime.gcWriteBarrier2>
 130e4f8: f9412fe4     	ldr	x4, [sp, #0x258]
 130e4fc: f9413fe5     	ldr	x5, [sp, #0x278]
 130e500: a9001724     	stp	x4, x5, [x25]
 130e504: a9009404     	stp	x4, x5, [x0, #0x8]
 130e508: f0002d01     	adrp	x1, 0x18b1000 <go:string.*+0x31508>
 130e50c: 910e4821     	add	x1, x1, #0x392
 130e510: d2800422     	mov	x2, #0x21               // =33
 130e514: aa0003e3     	mov	x3, x0
 130e518: f940b7e0     	ldr	x0, [sp, #0x168]
 130e51c: 97f2cf15     	bl	0xfc2170 <github.com/gorilla/mux.(*Router).HandleFunc>
 130e520: f90143e0     	str	x0, [sp, #0x280]
 130e524: 900012e0     	adrp	x0, 0x156a000 <type:*+0x134180>
 130e528: 91040000     	add	x0, x0, #0x100
 130e52c: 97c43c09     	bl	0x41d550 <runtime.newobject>
 130e530: b0002b84     	adrp	x4, 0x187f000 <type:*+0x449180>
 130e534: 913b8484     	add	x4, x4, #0xee1
 130e538: b24007e5     	orr	x5, xzr, #0x3
 130e53c: a9001404     	stp	x4, x5, [x0]
 130e540: d0002b84     	adrp	x4, 0x1880000 <go:string.*+0x508>
 130e544: 91147484     	add	x4, x4, #0x51d
 130e548: b27e03e5     	orr	x5, xzr, #0x4
 130e54c: a9011404     	stp	x4, x5, [x0, #0x10]
 130e550: aa0003e1     	mov	x1, x0
 130e554: b27f03e2     	orr	x2, xzr, #0x2
 130e558: aa0203e3     	mov	x3, x2
 130e55c: f94143e0     	ldr	x0, [sp, #0x280]
 130e560: 97f2e2e4     	bl	0xfc70f0 <github.com/gorilla/mux.(*Route).Methods>
 130e564: b0001a80     	adrp	x0, 0x165f000 <type:*+0x229180>
 130e568: 91028000     	add	x0, x0, #0xa0
 130e56c: 97c43bf9     	bl	0x41d550 <runtime.newobject>
 130e570: b0000044     	adrp	x4, 0x1317000 <github.com/coroot/enterprise/api.(*Api).SamlACS-fm+0x30>
 130e574: 912ac084     	add	x4, x4, #0xab0
 130e578: f9000004     	str	x4, [x0]
 130e57c: f9412fe4     	ldr	x4, [sp, #0x258]
 130e580: f9400485     	ldr	x5, [x4, #0x8]
 130e584: d00143bb     	adrp	x27, 0x3b84000 <crypto/internal/fips140deps/cpu.S390XHasSHA3>
 130e588: b94a7366     	ldr	w6, [x27, #0xa70]
 130e58c: 34000066     	cbz	w6, 0x130e598 <main.main+0x2178>
 130e590: 97c5e82c     	bl	0x488640 <runtime.gcWriteBarrier1>
 130e594: f9000325     	str	x5, [x25]
 130e598: f9013fe0     	str	x0, [sp, #0x278]
 130e59c: f9000405     	str	x5, [x0, #0x8]
 130e5a0: f0001de0     	adrp	x0, 0x16cd000 <type:*+0x297180>
 130e5a4: 91290000     	add	x0, x0, #0xa40
 130e5a8: 97c43bea     	bl	0x41d550 <runtime.newobject>
 130e5ac: d0000021     	adrp	x1, 0x1314000 <main.main.(*Api).Auth.func27+0x150>
 130e5b0: 911f0021     	add	x1, x1, #0x7c0
 130e5b4: f9000001     	str	x1, [x0]
 130e5b8: d00143bb     	adrp	x27, 0x3b84000 <crypto/internal/fips140deps/cpu.S390XHasSHA3>
 130e5bc: b94a7361     	ldr	w1, [x27, #0xa70]
 130e5c0: 35000081     	cbnz	w1, 0x130e5d0 <main.main+0x21b0>
 130e5c4: f9412fe4     	ldr	x4, [sp, #0x258]
 130e5c8: f9413fe5     	ldr	x5, [sp, #0x278]
 130e5cc: 14000005     	b	0x130e5e0 <main.main+0x21c0>
 130e5d0: 97c5e820     	bl	0x488650 <runtime.gcWriteBarrier2>
 130e5d4: f9412fe4     	ldr	x4, [sp, #0x258]
 130e5d8: f9413fe5     	ldr	x5, [sp, #0x278]
 130e5dc: a9001724     	stp	x4, x5, [x25]
 130e5e0: a9009404     	stp	x4, x5, [x0, #0x8]
 130e5e4: 90002dc1     	adrp	x1, 0x18c6000 <go:string.*+0x46508>
 130e5e8: 91352c21     	add	x1, x1, #0xd4b
 130e5ec: d28005a2     	mov	x2, #0x2d               // =45
 130e5f0: aa0003e3     	mov	x3, x0
 130e5f4: f940b7e0     	ldr	x0, [sp, #0x168]
 130e5f8: 97f2cede     	bl	0xfc2170 <github.com/gorilla/mux.(*Router).HandleFunc>
 130e5fc: f90143e0     	str	x0, [sp, #0x280]
 130e600: 900012e0     	adrp	x0, 0x156a000 <type:*+0x134180>
 130e604: 91040000     	add	x0, x0, #0x100
 130e608: 97c43bd2     	bl	0x41d550 <runtime.newobject>
 130e60c: b0002b84     	adrp	x4, 0x187f000 <type:*+0x449180>
 130e610: 913b8484     	add	x4, x4, #0xee1
 130e614: b24007e5     	orr	x5, xzr, #0x3
 130e618: a9001404     	stp	x4, x5, [x0]
 130e61c: d0002b84     	adrp	x4, 0x1880000 <go:string.*+0x508>
 130e620: 91147484     	add	x4, x4, #0x51d
 130e624: b27e03e5     	orr	x5, xzr, #0x4
 130e628: a9011404     	stp	x4, x5, [x0, #0x10]
 130e62c: aa0003e1     	mov	x1, x0
 130e630: b27f03e2     	orr	x2, xzr, #0x2
 130e634: aa0203e3     	mov	x3, x2
 130e638: f94143e0     	ldr	x0, [sp, #0x280]
 130e63c: 97f2e2ad     	bl	0xfc70f0 <github.com/gorilla/mux.(*Route).Methods>
 130e640: b0001a80     	adrp	x0, 0x165f000 <type:*+0x229180>
 130e644: 91028000     	add	x0, x0, #0xa0
 130e648: 97c43bc2     	bl	0x41d550 <runtime.newobject>
 130e64c: b0000044     	adrp	x4, 0x1317000 <github.com/coroot/enterprise/api.(*Api).SamlACS-fm+0x30>
 130e650: 912d0084     	add	x4, x4, #0xb40
 130e654: f9000004     	str	x4, [x0]
 130e658: f9412fe4     	ldr	x4, [sp, #0x258]
 130e65c: f9400485     	ldr	x5, [x4, #0x8]
 130e660: d00143bb     	adrp	x27, 0x3b84000 <crypto/internal/fips140deps/cpu.S390XHasSHA3>
 130e664: b94a7366     	ldr	w6, [x27, #0xa70]
 130e668: 34000066     	cbz	w6, 0x130e674 <main.main+0x2254>
 130e66c: 97c5e7f5     	bl	0x488640 <runtime.gcWriteBarrier1>
 130e670: f9000325     	str	x5, [x25]
 130e674: f9013fe0     	str	x0, [sp, #0x278]
 130e678: f9000405     	str	x5, [x0, #0x8]
 130e67c: f0001de0     	adrp	x0, 0x16cd000 <type:*+0x297180>
 130e680: 91290000     	add	x0, x0, #0xa40
 130e684: 97c43bb3     	bl	0x41d550 <runtime.newobject>
 130e688: d0000021     	adrp	x1, 0x1314000 <main.main.(*Api).Auth.func27+0x150>
 130e68c: 9117c021     	add	x1, x1, #0x5f0
 130e690: f9000001     	str	x1, [x0]
 130e694: d00143bb     	adrp	x27, 0x3b84000 <crypto/internal/fips140deps/cpu.S390XHasSHA3>
 130e698: b94a7361     	ldr	w1, [x27, #0xa70]
 130e69c: 35000081     	cbnz	w1, 0x130e6ac <main.main+0x228c>
 130e6a0: f9412fe4     	ldr	x4, [sp, #0x258]
 130e6a4: f9413fe5     	ldr	x5, [sp, #0x278]
 130e6a8: 14000005     	b	0x130e6bc <main.main+0x229c>
 130e6ac: 97c5e7e9     	bl	0x488650 <runtime.gcWriteBarrier2>
 130e6b0: f9412fe4     	ldr	x4, [sp, #0x258]
 130e6b4: f9413fe5     	ldr	x5, [sp, #0x278]
 130e6b8: a9001724     	stp	x4, x5, [x25]
 130e6bc: a9009404     	stp	x4, x5, [x0, #0x8]
 130e6c0: f0002d01     	adrp	x1, 0x18b1000 <go:string.*+0x31508>
 130e6c4: 910ecc21     	add	x1, x1, #0x3b3
 130e6c8: d2800422     	mov	x2, #0x21               // =33
 130e6cc: aa0003e3     	mov	x3, x0
 130e6d0: f940b7e0     	ldr	x0, [sp, #0x168]
 130e6d4: 97f2cea7     	bl	0xfc2170 <github.com/gorilla/mux.(*Router).HandleFunc>
 130e6d8: f90143e0     	str	x0, [sp, #0x280]
 130e6dc: 900012e0     	adrp	x0, 0x156a000 <type:*+0x134180>
 130e6e0: 91010000     	add	x0, x0, #0x40
 130e6e4: 97c43b9b     	bl	0x41d550 <runtime.newobject>
 130e6e8: b0002b84     	adrp	x4, 0x187f000 <type:*+0x449180>
 130e6ec: 913b8484     	add	x4, x4, #0xee1
 130e6f0: b24007e5     	orr	x5, xzr, #0x3
 130e6f4: a9001404     	stp	x4, x5, [x0]
 130e6f8: aa0003e1     	mov	x1, x0
 130e6fc: b24003e2     	orr	x2, xzr, #0x1
 130e700: aa0203e3     	mov	x3, x2
 130e704: f94143e0     	ldr	x0, [sp, #0x280]
 130e708: 97f2e27a     	bl	0xfc70f0 <github.com/gorilla/mux.(*Route).Methods>
 130e70c: b0001a80     	adrp	x0, 0x165f000 <type:*+0x229180>
 130e710: 91028000     	add	x0, x0, #0xa0
 130e714: 97c43b8f     	bl	0x41d550 <runtime.newobject>
 130e718: b0000044     	adrp	x4, 0x1317000 <github.com/coroot/enterprise/api.(*Api).SamlACS-fm+0x30>
 130e71c: 912f4084     	add	x4, x4, #0xbd0
 130e720: f9000004     	str	x4, [x0]
 130e724: f9412fe4     	ldr	x4, [sp, #0x258]
 130e728: f9400485     	ldr	x5, [x4, #0x8]
 130e72c: d00143bb     	adrp	x27, 0x3b84000 <crypto/internal/fips140deps/cpu.S390XHasSHA3>
 130e730: b94a7366     	ldr	w6, [x27, #0xa70]
 130e734: 34000066     	cbz	w6, 0x130e740 <main.main+0x2320>
 130e738: 97c5e7c2     	bl	0x488640 <runtime.gcWriteBarrier1>
 130e73c: f9000325     	str	x5, [x25]
 130e740: f9013fe0     	str	x0, [sp, #0x278]
 130e744: f9000405     	str	x5, [x0, #0x8]
 130e748: f0001de0     	adrp	x0, 0x16cd000 <type:*+0x297180>
 130e74c: 91290000     	add	x0, x0, #0xa40
 130e750: 97c43b80     	bl	0x41d550 <runtime.newobject>
 130e754: d0000021     	adrp	x1, 0x1314000 <main.main.(*Api).Auth.func27+0x150>
 130e758: 91108021     	add	x1, x1, #0x420
 130e75c: f9000001     	str	x1, [x0]
 130e760: d00143bb     	adrp	x27, 0x3b84000 <crypto/internal/fips140deps/cpu.S390XHasSHA3>
 130e764: b94a7361     	ldr	w1, [x27, #0xa70]
 130e768: 35000081     	cbnz	w1, 0x130e778 <main.main+0x2358>
 130e76c: f9412fe4     	ldr	x4, [sp, #0x258]
 130e770: f9413fe5     	ldr	x5, [sp, #0x278]
 130e774: 14000005     	b	0x130e788 <main.main+0x2368>
 130e778: 97c5e7b6     	bl	0x488650 <runtime.gcWriteBarrier2>
 130e77c: f9412fe4     	ldr	x4, [sp, #0x258]
 130e780: f9413fe5     	ldr	x5, [sp, #0x278]
 130e784: a9001724     	stp	x4, x5, [x25]
 130e788: a9009404     	stp	x4, x5, [x0, #0x8]
 130e78c: d0002cc1     	adrp	x1, 0x18a8000 <go:string.*+0x28508>
 130e790: 912eac21     	add	x1, x1, #0xbab
 130e794: d28003a2     	mov	x2, #0x1d               // =29
 130e798: aa0003e3     	mov	x3, x0
 130e79c: f940b7e0     	ldr	x0, [sp, #0x168]
 130e7a0: 97f2ce74     	bl	0xfc2170 <github.com/gorilla/mux.(*Router).HandleFunc>
 130e7a4: f90143e0     	str	x0, [sp, #0x280]
 130e7a8: 900012e0     	adrp	x0, 0x156a000 <type:*+0x134180>
 130e7ac: 91010000     	add	x0, x0, #0x40
 130e7b0: 97c43b68     	bl	0x41d550 <runtime.newobject>
 130e7b4: b0002b84     	adrp	x4, 0x187f000 <type:*+0x449180>
 130e7b8: 913b8484     	add	x4, x4, #0xee1
 130e7bc: b24007e5     	orr	x5, xzr, #0x3
 130e7c0: a9001404     	stp	x4, x5, [x0]
 130e7c4: aa0003e1     	mov	x1, x0
 130e7c8: b24003e2     	orr	x2, xzr, #0x1
 130e7cc: aa0203e3     	mov	x3, x2
 130e7d0: f94143e0     	ldr	x0, [sp, #0x280]
 130e7d4: 97f2e247     	bl	0xfc70f0 <github.com/gorilla/mux.(*Route).Methods>
 130e7d8: b0001a80     	adrp	x0, 0x165f000 <type:*+0x229180>
 130e7dc: 91028000     	add	x0, x0, #0xa0
 130e7e0: 97c43b5c     	bl	0x41d550 <runtime.newobject>
 130e7e4: b0000044     	adrp	x4, 0x1317000 <github.com/coroot/enterprise/api.(*Api).SamlACS-fm+0x30>
 130e7e8: 91318084     	add	x4, x4, #0xc60
 130e7ec: f9000004     	str	x4, [x0]
 130e7f0: f9412fe4     	ldr	x4, [sp, #0x258]
 130e7f4: f9400485     	ldr	x5, [x4, #0x8]
 130e7f8: d00143bb     	adrp	x27, 0x3b84000 <crypto/internal/fips140deps/cpu.S390XHasSHA3>
 130e7fc: b94a7366     	ldr	w6, [x27, #0xa70]
 130e800: 34000066     	cbz	w6, 0x130e80c <main.main+0x23ec>
 130e804: 97c5e78f     	bl	0x488640 <runtime.gcWriteBarrier1>
 130e808: f9000325     	str	x5, [x25]
 130e80c: f9013fe0     	str	x0, [sp, #0x278]
 130e810: f9000405     	str	x5, [x0, #0x8]
 130e814: f0001de0     	adrp	x0, 0x16cd000 <type:*+0x297180>
 130e818: 91290000     	add	x0, x0, #0xa40
 130e81c: 97c43b4d     	bl	0x41d550 <runtime.newobject>
 130e820: d0000021     	adrp	x1, 0x1314000 <main.main.(*Api).Auth.func27+0x150>
 130e824: 91094021     	add	x1, x1, #0x250
 130e828: f9000001     	str	x1, [x0]
 130e82c: d00143bb     	adrp	x27, 0x3b84000 <crypto/internal/fips140deps/cpu.S390XHasSHA3>
 130e830: b94a7361     	ldr	w1, [x27, #0xa70]
 130e834: 35000081     	cbnz	w1, 0x130e844 <main.main+0x2424>
 130e838: f9412fe4     	ldr	x4, [sp, #0x258]
 130e83c: f9413fe5     	ldr	x5, [sp, #0x278]
 130e840: 14000005     	b	0x130e854 <main.main+0x2434>
 130e844: 97c5e783     	bl	0x488650 <runtime.gcWriteBarrier2>
 130e848: f9412fe4     	ldr	x4, [sp, #0x258]
 130e84c: f9413fe5     	ldr	x5, [sp, #0x278]
 130e850: a9001724     	stp	x4, x5, [x25]
 130e854: a9009404     	stp	x4, x5, [x0, #0x8]
 130e858: f0002d41     	adrp	x1, 0x18b9000 <go:string.*+0x39508>
 130e85c: 911f3421     	add	x1, x1, #0x7cd
 130e860: d28004a2     	mov	x2, #0x25               // =37
 130e864: aa0003e3     	mov	x3, x0
 130e868: f940b7e0     	ldr	x0, [sp, #0x168]
 130e86c: 97f2ce41     	bl	0xfc2170 <github.com/gorilla/mux.(*Router).HandleFunc>
 130e870: f90143e0     	str	x0, [sp, #0x280]
 130e874: 900012e0     	adrp	x0, 0x156a000 <type:*+0x134180>
 130e878: 91010000     	add	x0, x0, #0x40
 130e87c: 97c43b35     	bl	0x41d550 <runtime.newobject>
 130e880: d0002b84     	adrp	x4, 0x1880000 <go:string.*+0x508>
 130e884: 91147484     	add	x4, x4, #0x51d
 130e888: b27e03e5     	orr	x5, xzr, #0x4
 130e88c: a9001404     	stp	x4, x5, [x0]
 130e890: aa0003e1     	mov	x1, x0
 130e894: b24003e2     	orr	x2, xzr, #0x1
 130e898: aa0203e3     	mov	x3, x2
 130e89c: f94143e0     	ldr	x0, [sp, #0x280]
 130e8a0: 97f2e214     	bl	0xfc70f0 <github.com/gorilla/mux.(*Route).Methods>
 130e8a4: b0001a80     	adrp	x0, 0x165f000 <type:*+0x229180>
 130e8a8: 91028000     	add	x0, x0, #0xa0
 130e8ac: 97c43b29     	bl	0x41d550 <runtime.newobject>
 130e8b0: b0000044     	adrp	x4, 0x1317000 <github.com/coroot/enterprise/api.(*Api).SamlACS-fm+0x30>
 130e8b4: 9133c084     	add	x4, x4, #0xcf0
 130e8b8: f9000004     	str	x4, [x0]
 130e8bc: f9412fe4     	ldr	x4, [sp, #0x258]
 130e8c0: f9400485     	ldr	x5, [x4, #0x8]
 130e8c4: d00143bb     	adrp	x27, 0x3b84000 <crypto/internal/fips140deps/cpu.S390XHasSHA3>
 130e8c8: b94a7366     	ldr	w6, [x27, #0xa70]
 130e8cc: 34000066     	cbz	w6, 0x130e8d8 <main.main+0x24b8>
 130e8d0: 97c5e75c     	bl	0x488640 <runtime.gcWriteBarrier1>
 130e8d4: f9000325     	str	x5, [x25]
 130e8d8: f9013fe0     	str	x0, [sp, #0x278]
 130e8dc: f9000405     	str	x5, [x0, #0x8]
 130e8e0: f0001de0     	adrp	x0, 0x16cd000 <type:*+0x297180>
 130e8e4: 91290000     	add	x0, x0, #0xa40
 130e8e8: 97c43b1a     	bl	0x41d550 <runtime.newobject>
 130e8ec: d0000021     	adrp	x1, 0x1314000 <main.main.(*Api).Auth.func27+0x150>
 130e8f0: 91020021     	add	x1, x1, #0x80
 130e8f4: f9000001     	str	x1, [x0]
 130e8f8: d00143bb     	adrp	x27, 0x3b84000 <crypto/internal/fips140deps/cpu.S390XHasSHA3>
 130e8fc: b94a7361     	ldr	w1, [x27, #0xa70]
 130e900: 35000081     	cbnz	w1, 0x130e910 <main.main+0x24f0>
 130e904: f9412fe4     	ldr	x4, [sp, #0x258]
 130e908: f9413fe5     	ldr	x5, [sp, #0x278]
 130e90c: 14000005     	b	0x130e920 <main.main+0x2500>
 130e910: 97c5e750     	bl	0x488650 <runtime.gcWriteBarrier2>
 130e914: f9412fe4     	ldr	x4, [sp, #0x258]
 130e918: f9413fe5     	ldr	x5, [sp, #0x278]
 130e91c: a9001724     	stp	x4, x5, [x25]
 130e920: a9009404     	stp	x4, x5, [x0, #0x8]
 130e924: b0002d61     	adrp	x1, 0x18bb000 <go:string.*+0x3b508>
 130e928: 911a5c21     	add	x1, x1, #0x697
 130e92c: d28004c2     	mov	x2, #0x26               // =38
 130e930: aa0003e3     	mov	x3, x0
 130e934: f940b7e0     	ldr	x0, [sp, #0x168]
 130e938: 97f2ce0e     	bl	0xfc2170 <github.com/gorilla/mux.(*Router).HandleFunc>
 130e93c: f90143e0     	str	x0, [sp, #0x280]
 130e940: 900012e0     	adrp	x0, 0x156a000 <type:*+0x134180>
 130e944: 91010000     	add	x0, x0, #0x40
 130e948: 97c43b02     	bl	0x41d550 <runtime.newobject>
 130e94c: d0002b84     	adrp	x4, 0x1880000 <go:string.*+0x508>
 130e950: 91147484     	add	x4, x4, #0x51d
 130e954: b27e03e5     	orr	x5, xzr, #0x4
 130e958: a9001404     	stp	x4, x5, [x0]
 130e95c: aa0003e1     	mov	x1, x0
 130e960: b24003e2     	orr	x2, xzr, #0x1
 130e964: aa0203e3     	mov	x3, x2
 130e968: f94143e0     	ldr	x0, [sp, #0x280]
 130e96c: 97f2e1e1     	bl	0xfc70f0 <github.com/gorilla/mux.(*Route).Methods>
 130e970: b0001a80     	adrp	x0, 0x165f000 <type:*+0x229180>
 130e974: 91028000     	add	x0, x0, #0xa0
 130e978: 97c43af6     	bl	0x41d550 <runtime.newobject>
 130e97c: b0000044     	adrp	x4, 0x1317000 <github.com/coroot/enterprise/api.(*Api).SamlACS-fm+0x30>
 130e980: 91360084     	add	x4, x4, #0xd80
 130e984: f9000004     	str	x4, [x0]
 130e988: f9412fe4     	ldr	x4, [sp, #0x258]
 130e98c: f9400485     	ldr	x5, [x4, #0x8]
 130e990: d00143bb     	adrp	x27, 0x3b84000 <crypto/internal/fips140deps/cpu.S390XHasSHA3>
 130e994: b94a7366     	ldr	w6, [x27, #0xa70]
 130e998: 34000066     	cbz	w6, 0x130e9a4 <main.main+0x2584>
 130e99c: 97c5e729     	bl	0x488640 <runtime.gcWriteBarrier1>
 130e9a0: f9000325     	str	x5, [x25]
 130e9a4: f9013fe0     	str	x0, [sp, #0x278]
 130e9a8: f9000405     	str	x5, [x0, #0x8]
 130e9ac: f0001de0     	adrp	x0, 0x16cd000 <type:*+0x297180>
 130e9b0: 91290000     	add	x0, x0, #0xa40
 130e9b4: 97c43ae7     	bl	0x41d550 <runtime.newobject>
 130e9b8: b0000021     	adrp	x1, 0x1313000 <main.main.(*Api).Auth.func36+0x1a0>
 130e9bc: 913ac021     	add	x1, x1, #0xeb0
 130e9c0: f9000001     	str	x1, [x0]
 130e9c4: d00143bb     	adrp	x27, 0x3b84000 <crypto/internal/fips140deps/cpu.S390XHasSHA3>
 130e9c8: b94a7361     	ldr	w1, [x27, #0xa70]
 130e9cc: 35000081     	cbnz	w1, 0x130e9dc <main.main+0x25bc>
 130e9d0: f9412fe4     	ldr	x4, [sp, #0x258]
 130e9d4: f9413fe5     	ldr	x5, [sp, #0x278]
 130e9d8: 14000005     	b	0x130e9ec <main.main+0x25cc>
 130e9dc: 97c5e71d     	bl	0x488650 <runtime.gcWriteBarrier2>
 130e9e0: f9412fe4     	ldr	x4, [sp, #0x258]
 130e9e4: f9413fe5     	ldr	x5, [sp, #0x278]
 130e9e8: a9001724     	stp	x4, x5, [x25]
 130e9ec: a9009404     	stp	x4, x5, [x0, #0x8]
 130e9f0: f0002d41     	adrp	x1, 0x18b9000 <go:string.*+0x39508>
 130e9f4: 911fc821     	add	x1, x1, #0x7f2
 130e9f8: d28004a2     	mov	x2, #0x25               // =37
 130e9fc: aa0003e3     	mov	x3, x0
 130ea00: f940b7e0     	ldr	x0, [sp, #0x168]
 130ea04: 97f2cddb     	bl	0xfc2170 <github.com/gorilla/mux.(*Router).HandleFunc>
 130ea08: f90143e0     	str	x0, [sp, #0x280]
 130ea0c: 900012e0     	adrp	x0, 0x156a000 <type:*+0x134180>
 130ea10: 91010000     	add	x0, x0, #0x40
 130ea14: 97c43acf     	bl	0x41d550 <runtime.newobject>
 130ea18: b0002b84     	adrp	x4, 0x187f000 <type:*+0x449180>
 130ea1c: 913b8484     	add	x4, x4, #0xee1
 130ea20: b24007e5     	orr	x5, xzr, #0x3
 130ea24: a9001404     	stp	x4, x5, [x0]
 130ea28: aa0003e1     	mov	x1, x0
 130ea2c: b24003e2     	orr	x2, xzr, #0x1
 130ea30: aa0203e3     	mov	x3, x2
 130ea34: f94143e0     	ldr	x0, [sp, #0x280]
 130ea38: 97f2e1ae     	bl	0xfc70f0 <github.com/gorilla/mux.(*Route).Methods>
 130ea3c: b0001a80     	adrp	x0, 0x165f000 <type:*+0x229180>
 130ea40: 91028000     	add	x0, x0, #0xa0
 130ea44: 97c43ac3     	bl	0x41d550 <runtime.newobject>
 130ea48: b0000044     	adrp	x4, 0x1317000 <github.com/coroot/enterprise/api.(*Api).SamlACS-fm+0x30>
 130ea4c: 91384084     	add	x4, x4, #0xe10
 130ea50: f9000004     	str	x4, [x0]
 130ea54: f9412fe4     	ldr	x4, [sp, #0x258]
 130ea58: f9400485     	ldr	x5, [x4, #0x8]
 130ea5c: d00143bb     	adrp	x27, 0x3b84000 <crypto/internal/fips140deps/cpu.S390XHasSHA3>
 130ea60: b94a7366     	ldr	w6, [x27, #0xa70]
 130ea64: 34000066     	cbz	w6, 0x130ea70 <main.main+0x2650>
 130ea68: 97c5e6f6     	bl	0x488640 <runtime.gcWriteBarrier1>
 130ea6c: f9000325     	str	x5, [x25]
 130ea70: f9013fe0     	str	x0, [sp, #0x278]
 130ea74: f9000405     	str	x5, [x0, #0x8]
 130ea78: f0001de0     	adrp	x0, 0x16cd000 <type:*+0x297180>
 130ea7c: 91290000     	add	x0, x0, #0xa40
 130ea80: 97c43ab4     	bl	0x41d550 <runtime.newobject>
 130ea84: b0000021     	adrp	x1, 0x1313000 <main.main.(*Api).Auth.func36+0x1a0>
 130ea88: 91338021     	add	x1, x1, #0xce0
 130ea8c: f9000001     	str	x1, [x0]
 130ea90: d00143bb     	adrp	x27, 0x3b84000 <crypto/internal/fips140deps/cpu.S390XHasSHA3>
 130ea94: b94a7361     	ldr	w1, [x27, #0xa70]
 130ea98: 35000081     	cbnz	w1, 0x130eaa8 <main.main+0x2688>
 130ea9c: f9412fe4     	ldr	x4, [sp, #0x258]
 130eaa0: f9413fe5     	ldr	x5, [sp, #0x278]
 130eaa4: 14000005     	b	0x130eab8 <main.main+0x2698>
 130eaa8: 97c5e6ea     	bl	0x488650 <runtime.gcWriteBarrier2>
 130eaac: f9412fe4     	ldr	x4, [sp, #0x258]
 130eab0: f9413fe5     	ldr	x5, [sp, #0x278]
 130eab4: a9001724     	stp	x4, x5, [x25]
 130eab8: a9009404     	stp	x4, x5, [x0, #0x8]
 130eabc: b0002d41     	adrp	x1, 0x18b7000 <go:string.*+0x37508>
 130eac0: 911d4421     	add	x1, x1, #0x751
 130eac4: d2800482     	mov	x2, #0x24               // =36
 130eac8: aa0003e3     	mov	x3, x0
 130eacc: f940b7e0     	ldr	x0, [sp, #0x168]
 130ead0: 97f2cda8     	bl	0xfc2170 <github.com/gorilla/mux.(*Router).HandleFunc>
 130ead4: f90143e0     	str	x0, [sp, #0x280]
 130ead8: 900012e0     	adrp	x0, 0x156a000 <type:*+0x134180>
 130eadc: 91010000     	add	x0, x0, #0x40
 130eae0: 97c43a9c     	bl	0x41d550 <runtime.newobject>
 130eae4: d0002b84     	adrp	x4, 0x1880000 <go:string.*+0x508>
 130eae8: 91147484     	add	x4, x4, #0x51d
 130eaec: b27e03e5     	orr	x5, xzr, #0x4
 130eaf0: a9001404     	stp	x4, x5, [x0]
 130eaf4: aa0003e1     	mov	x1, x0
 130eaf8: b24003e2     	orr	x2, xzr, #0x1
 130eafc: aa0203e3     	mov	x3, x2
 130eb00: f94143e0     	ldr	x0, [sp, #0x280]
 130eb04: 97f2e17b     	bl	0xfc70f0 <github.com/gorilla/mux.(*Route).Methods>
 130eb08: b0001a80     	adrp	x0, 0x165f000 <type:*+0x229180>
 130eb0c: 91028000     	add	x0, x0, #0xa0
 130eb10: 97c43a90     	bl	0x41d550 <runtime.newobject>
 130eb14: b0000044     	adrp	x4, 0x1317000 <github.com/coroot/enterprise/api.(*Api).SamlACS-fm+0x30>
 130eb18: 913a8084     	add	x4, x4, #0xea0
 130eb1c: f9000004     	str	x4, [x0]
 130eb20: f9412fe4     	ldr	x4, [sp, #0x258]
 130eb24: f9400485     	ldr	x5, [x4, #0x8]
 130eb28: d00143bb     	adrp	x27, 0x3b84000 <crypto/internal/fips140deps/cpu.S390XHasSHA3>
 130eb2c: b94a7366     	ldr	w6, [x27, #0xa70]
 130eb30: 34000066     	cbz	w6, 0x130eb3c <main.main+0x271c>
 130eb34: 97c5e6c3     	bl	0x488640 <runtime.gcWriteBarrier1>
 130eb38: f9000325     	str	x5, [x25]
 130eb3c: f9013fe0     	str	x0, [sp, #0x278]
 130eb40: f9000405     	str	x5, [x0, #0x8]
 130eb44: f0001de0     	adrp	x0, 0x16cd000 <type:*+0x297180>
 130eb48: 91290000     	add	x0, x0, #0xa40
 130eb4c: 97c43a81     	bl	0x41d550 <runtime.newobject>
 130eb50: b0000021     	adrp	x1, 0x1313000 <main.main.(*Api).Auth.func36+0x1a0>
 130eb54: 912c4021     	add	x1, x1, #0xb10
 130eb58: f9000001     	str	x1, [x0]
 130eb5c: d00143bb     	adrp	x27, 0x3b84000 <crypto/internal/fips140deps/cpu.S390XHasSHA3>
 130eb60: b94a7361     	ldr	w1, [x27, #0xa70]
 130eb64: 35000081     	cbnz	w1, 0x130eb74 <main.main+0x2754>
 130eb68: f9412fe4     	ldr	x4, [sp, #0x258]
 130eb6c: f9413fe5     	ldr	x5, [sp, #0x278]
 130eb70: 14000005     	b	0x130eb84 <main.main+0x2764>
 130eb74: 97c5e6b7     	bl	0x488650 <runtime.gcWriteBarrier2>
 130eb78: f9412fe4     	ldr	x4, [sp, #0x258]
 130eb7c: f9413fe5     	ldr	x5, [sp, #0x278]
 130eb80: a9001724     	stp	x4, x5, [x25]
 130eb84: a9009404     	stp	x4, x5, [x0, #0x8]
 130eb88: f0002d41     	adrp	x1, 0x18b9000 <go:string.*+0x39508>
 130eb8c: 91205c21     	add	x1, x1, #0x817
 130eb90: d28004a2     	mov	x2, #0x25               // =37
 130eb94: aa0003e3     	mov	x3, x0
 130eb98: f940b7e0     	ldr	x0, [sp, #0x168]
 130eb9c: 97f2cd75     	bl	0xfc2170 <github.com/gorilla/mux.(*Router).HandleFunc>
 130eba0: f90143e0     	str	x0, [sp, #0x280]
 130eba4: 900012e0     	adrp	x0, 0x156a000 <type:*+0x134180>
 130eba8: 91040000     	add	x0, x0, #0x100
 130ebac: 97c43a69     	bl	0x41d550 <runtime.newobject>
 130ebb0: b0002b84     	adrp	x4, 0x187f000 <type:*+0x449180>
 130ebb4: 913b8484     	add	x4, x4, #0xee1
 130ebb8: b24007e5     	orr	x5, xzr, #0x3
 130ebbc: a9001404     	stp	x4, x5, [x0]
 130ebc0: d0002b84     	adrp	x4, 0x1880000 <go:string.*+0x508>
 130ebc4: 91147484     	add	x4, x4, #0x51d
 130ebc8: b27e03e5     	orr	x5, xzr, #0x4
 130ebcc: a9011404     	stp	x4, x5, [x0, #0x10]
 130ebd0: aa0003e1     	mov	x1, x0
 130ebd4: b27f03e2     	orr	x2, xzr, #0x2
 130ebd8: aa0203e3     	mov	x3, x2
 130ebdc: f94143e0     	ldr	x0, [sp, #0x280]
 130ebe0: 97f2e144     	bl	0xfc70f0 <github.com/gorilla/mux.(*Route).Methods>
 130ebe4: b0001a80     	adrp	x0, 0x165f000 <type:*+0x229180>
 130ebe8: 91028000     	add	x0, x0, #0xa0
 130ebec: 97c43a59     	bl	0x41d550 <runtime.newobject>
 130ebf0: b0000044     	adrp	x4, 0x1317000 <github.com/coroot/enterprise/api.(*Api).SamlACS-fm+0x30>
 130ebf4: 913cc084     	add	x4, x4, #0xf30
 130ebf8: f9000004     	str	x4, [x0]
 130ebfc: f9412fe4     	ldr	x4, [sp, #0x258]
 130ec00: f9400485     	ldr	x5, [x4, #0x8]
 130ec04: d00143bb     	adrp	x27, 0x3b84000 <crypto/internal/fips140deps/cpu.S390XHasSHA3>
 130ec08: b94a7366     	ldr	w6, [x27, #0xa70]
 130ec0c: 34000066     	cbz	w6, 0x130ec18 <main.main+0x27f8>
 130ec10: 97c5e68c     	bl	0x488640 <runtime.gcWriteBarrier1>
 130ec14: f9000325     	str	x5, [x25]
 130ec18: f9013fe0     	str	x0, [sp, #0x278]
 130ec1c: f9000405     	str	x5, [x0, #0x8]
 130ec20: f0001de0     	adrp	x0, 0x16cd000 <type:*+0x297180>
 130ec24: 91290000     	add	x0, x0, #0xa40
 130ec28: 97c43a4a     	bl	0x41d550 <runtime.newobject>
 130ec2c: b0000021     	adrp	x1, 0x1313000 <main.main.(*Api).Auth.func36+0x1a0>
 130ec30: 91250021     	add	x1, x1, #0x940
 130ec34: f9000001     	str	x1, [x0]
 130ec38: d00143bb     	adrp	x27, 0x3b84000 <crypto/internal/fips140deps/cpu.S390XHasSHA3>
 130ec3c: b94a7361     	ldr	w1, [x27, #0xa70]
 130ec40: 35000081     	cbnz	w1, 0x130ec50 <main.main+0x2830>
 130ec44: f9412fe4     	ldr	x4, [sp, #0x258]
 130ec48: f9413fe5     	ldr	x5, [sp, #0x278]
 130ec4c: 14000005     	b	0x130ec60 <main.main+0x2840>
 130ec50: 97c5e680     	bl	0x488650 <runtime.gcWriteBarrier2>
 130ec54: f9412fe4     	ldr	x4, [sp, #0x258]
 130ec58: f9413fe5     	ldr	x5, [sp, #0x278]
 130ec5c: a9001724     	stp	x4, x5, [x25]
 130ec60: a9009404     	stp	x4, x5, [x0, #0x8]
 130ec64: f0002da1     	adrp	x1, 0x18c5000 <go:string.*+0x45508>
 130ec68: 910bfc21     	add	x1, x1, #0x2ff
 130ec6c: d2800582     	mov	x2, #0x2c               // =44
 130ec70: aa0003e3     	mov	x3, x0
 130ec74: f940b7e0     	ldr	x0, [sp, #0x168]
 130ec78: 97f2cd3e     	bl	0xfc2170 <github.com/gorilla/mux.(*Router).HandleFunc>
 130ec7c: f90143e0     	str	x0, [sp, #0x280]
 130ec80: 900012e0     	adrp	x0, 0x156a000 <type:*+0x134180>
 130ec84: 91010000     	add	x0, x0, #0x40
 130ec88: 97c43a32     	bl	0x41d550 <runtime.newobject>
 130ec8c: b0002b84     	adrp	x4, 0x187f000 <type:*+0x449180>
 130ec90: 913b8484     	add	x4, x4, #0xee1
 130ec94: b24007e5     	orr	x5, xzr, #0x3
 130ec98: a9001404     	stp	x4, x5, [x0]
 130ec9c: aa0003e1     	mov	x1, x0
 130eca0: b24003e2     	orr	x2, xzr, #0x1
 130eca4: aa0203e3     	mov	x3, x2
 130eca8: f94143e0     	ldr	x0, [sp, #0x280]
 130ecac: 97f2e111     	bl	0xfc70f0 <github.com/gorilla/mux.(*Route).Methods>
 130ecb0: b0001a80     	adrp	x0, 0x165f000 <type:*+0x229180>
 130ecb4: 91028000     	add	x0, x0, #0xa0
 130ecb8: 97c43a26     	bl	0x41d550 <runtime.newobject>
 130ecbc: b0000044     	adrp	x4, 0x1317000 <github.com/coroot/enterprise/api.(*Api).SamlACS-fm+0x30>
 130ecc0: 913f0084     	add	x4, x4, #0xfc0
 130ecc4: f9000004     	str	x4, [x0]
 130ecc8: f9412fe4     	ldr	x4, [sp, #0x258]
 130eccc: f9400485     	ldr	x5, [x4, #0x8]
 130ecd0: d00143bb     	adrp	x27, 0x3b84000 <crypto/internal/fips140deps/cpu.S390XHasSHA3>
 130ecd4: b94a7366     	ldr	w6, [x27, #0xa70]
 130ecd8: 34000066     	cbz	w6, 0x130ece4 <main.main+0x28c4>
 130ecdc: 97c5e659     	bl	0x488640 <runtime.gcWriteBarrier1>
 130ece0: f9000325     	str	x5, [x25]
 130ece4: f9013fe0     	str	x0, [sp, #0x278]
 130ece8: f9000405     	str	x5, [x0, #0x8]
 130ecec: f0001de0     	adrp	x0, 0x16cd000 <type:*+0x297180>
 130ecf0: 91290000     	add	x0, x0, #0xa40
 130ecf4: 97c43a17     	bl	0x41d550 <runtime.newobject>
 130ecf8: b0000021     	adrp	x1, 0x1313000 <main.main.(*Api).Auth.func36+0x1a0>
 130ecfc: 911dc021     	add	x1, x1, #0x770
 130ed00: f9000001     	str	x1, [x0]
 130ed04: d00143bb     	adrp	x27, 0x3b84000 <crypto/internal/fips140deps/cpu.S390XHasSHA3>
 130ed08: b94a7361     	ldr	w1, [x27, #0xa70]
 130ed0c: 35000081     	cbnz	w1, 0x130ed1c <main.main+0x28fc>
 130ed10: f9412fe4     	ldr	x4, [sp, #0x258]
 130ed14: f9413fe5     	ldr	x5, [sp, #0x278]
 130ed18: 14000005     	b	0x130ed2c <main.main+0x290c>
 130ed1c: 97c5e64d     	bl	0x488650 <runtime.gcWriteBarrier2>
 130ed20: f9412fe4     	ldr	x4, [sp, #0x258]
 130ed24: f9413fe5     	ldr	x5, [sp, #0x278]
 130ed28: a9001724     	stp	x4, x5, [x25]
 130ed2c: a9009404     	stp	x4, x5, [x0, #0x8]
 130ed30: f0002da1     	adrp	x1, 0x18c5000 <go:string.*+0x45508>
 130ed34: 910cac21     	add	x1, x1, #0x32b
 130ed38: d2800582     	mov	x2, #0x2c               // =44
 130ed3c: aa0003e3     	mov	x3, x0
 130ed40: f940b7e0     	ldr	x0, [sp, #0x168]
 130ed44: 97f2cd0b     	bl	0xfc2170 <github.com/gorilla/mux.(*Router).HandleFunc>
 130ed48: f90143e0     	str	x0, [sp, #0x280]
 130ed4c: 900012e0     	adrp	x0, 0x156a000 <type:*+0x134180>
 130ed50: 91088000     	add	x0, x0, #0x220
 130ed54: 97c439ff     	bl	0x41d550 <runtime.newobject>
 130ed58: b0002b84     	adrp	x4, 0x187f000 <type:*+0x449180>
 130ed5c: 913b8484     	add	x4, x4, #0xee1
 130ed60: b24007e3     	orr	x3, xzr, #0x3
 130ed64: a9000c04     	stp	x4, x3, [x0]
 130ed68: b0002b84     	adrp	x4, 0x187f000 <type:*+0x449180>
 130ed6c: 913b9084     	add	x4, x4, #0xee4
 130ed70: a9010c04     	stp	x4, x3, [x0, #0x10]
 130ed74: 90002ba4     	adrp	x4, 0x1882000 <go:string.*+0x2508>
 130ed78: 911f8c84     	add	x4, x4, #0x7e3
 130ed7c: b27f07e5     	orr	x5, xzr, #0x6
 130ed80: a9021404     	stp	x4, x5, [x0, #0x20]
 130ed84: aa0003e1     	mov	x1, x0
 130ed88: aa0303e2     	mov	x2, x3
 130ed8c: f94143e0     	ldr	x0, [sp, #0x280]
 130ed90: 97f2e0d8     	bl	0xfc70f0 <github.com/gorilla/mux.(*Route).Methods>
 130ed94: b0001a80     	adrp	x0, 0x165f000 <type:*+0x229180>
 130ed98: 91028000     	add	x0, x0, #0xa0
 130ed9c: 97c439ed     	bl	0x41d550 <runtime.newobject>
 130eda0: d0000044     	adrp	x4, 0x1318000 <github.com/coroot/coroot/api.(*Api).AlertingRule-fm+0x40>
 130eda4: 91014084     	add	x4, x4, #0x50
 130eda8: f9000004     	str	x4, [x0]
 130edac: f9412fe4     	ldr	x4, [sp, #0x258]
 130edb0: f9400485     	ldr	x5, [x4, #0x8]
 130edb4: d00143bb     	adrp	x27, 0x3b84000 <crypto/internal/fips140deps/cpu.S390XHasSHA3>
 130edb8: b94a7366     	ldr	w6, [x27, #0xa70]
 130edbc: 34000066     	cbz	w6, 0x130edc8 <main.main+0x29a8>
 130edc0: 97c5e620     	bl	0x488640 <runtime.gcWriteBarrier1>
 130edc4: f9000325     	str	x5, [x25]
 130edc8: f9013fe0     	str	x0, [sp, #0x278]
 130edcc: f9000405     	str	x5, [x0, #0x8]
 130edd0: f0001de0     	adrp	x0, 0x16cd000 <type:*+0x297180>
 130edd4: 91290000     	add	x0, x0, #0xa40
 130edd8: 97c439de     	bl	0x41d550 <runtime.newobject>
 130eddc: b0000021     	adrp	x1, 0x1313000 <main.main.(*Api).Auth.func36+0x1a0>
 130ede0: 91168021     	add	x1, x1, #0x5a0
 130ede4: f9000001     	str	x1, [x0]
 130ede8: d00143bb     	adrp	x27, 0x3b84000 <crypto/internal/fips140deps/cpu.S390XHasSHA3>
 130edec: b94a7361     	ldr	w1, [x27, #0xa70]
 130edf0: 35000081     	cbnz	w1, 0x130ee00 <main.main+0x29e0>
 130edf4: f9412fe4     	ldr	x4, [sp, #0x258]
 130edf8: f9413fe5     	ldr	x5, [sp, #0x278]
 130edfc: 14000005     	b	0x130ee10 <main.main+0x29f0>
 130ee00: 97c5e614     	bl	0x488650 <runtime.gcWriteBarrier2>
 130ee04: f9412fe4     	ldr	x4, [sp, #0x258]
 130ee08: f9413fe5     	ldr	x5, [sp, #0x278]
 130ee0c: a9001724     	stp	x4, x5, [x25]
 130ee10: a9009404     	stp	x4, x5, [x0, #0x8]
 130ee14: b0002d21     	adrp	x1, 0x18b3000 <go:string.*+0x33508>
 130ee18: 9121c021     	add	x1, x1, #0x870
 130ee1c: d2800442     	mov	x2, #0x22               // =34
 130ee20: aa0003e3     	mov	x3, x0
 130ee24: f940b7e0     	ldr	x0, [sp, #0x168]
 130ee28: 97f2ccd2     	bl	0xfc2170 <github.com/gorilla/mux.(*Router).HandleFunc>
 130ee2c: f90143e0     	str	x0, [sp, #0x280]
 130ee30: 900012e0     	adrp	x0, 0x156a000 <type:*+0x134180>
 130ee34: 91010000     	add	x0, x0, #0x40
 130ee38: 97c439c6     	bl	0x41d550 <runtime.newobject>
 130ee3c: b0002b84     	adrp	x4, 0x187f000 <type:*+0x449180>
 130ee40: 913b8484     	add	x4, x4, #0xee1
 130ee44: b24007e5     	orr	x5, xzr, #0x3
 130ee48: a9001404     	stp	x4, x5, [x0]
 130ee4c: aa0003e1     	mov	x1, x0
 130ee50: b24003e2     	orr	x2, xzr, #0x1
 130ee54: aa0203e3     	mov	x3, x2
 130ee58: f94143e0     	ldr	x0, [sp, #0x280]
 130ee5c: 97f2e0a5     	bl	0xfc70f0 <github.com/gorilla/mux.(*Route).Methods>
 130ee60: b0001a80     	adrp	x0, 0x165f000 <type:*+0x229180>
 130ee64: 91028000     	add	x0, x0, #0xa0
 130ee68: 97c439ba     	bl	0x41d550 <runtime.newobject>
 130ee6c: d0000044     	adrp	x4, 0x1318000 <github.com/coroot/coroot/api.(*Api).AlertingRule-fm+0x40>
 130ee70: 91038084     	add	x4, x4, #0xe0
 130ee74: f9000004     	str	x4, [x0]
 130ee78: f9412fe4     	ldr	x4, [sp, #0x258]
 130ee7c: f9400485     	ldr	x5, [x4, #0x8]
 130ee80: d00143bb     	adrp	x27, 0x3b84000 <crypto/internal/fips140deps/cpu.S390XHasSHA3>
 130ee84: b94a7366     	ldr	w6, [x27, #0xa70]
 130ee88: 34000066     	cbz	w6, 0x130ee94 <main.main+0x2a74>
 130ee8c: 97c5e5ed     	bl	0x488640 <runtime.gcWriteBarrier1>
 130ee90: f9000325     	str	x5, [x25]
 130ee94: f9013fe0     	str	x0, [sp, #0x278]
 130ee98: f9000405     	str	x5, [x0, #0x8]
 130ee9c: f0001de0     	adrp	x0, 0x16cd000 <type:*+0x297180>
 130eea0: 91290000     	add	x0, x0, #0xa40
 130eea4: 97c439ab     	bl	0x41d550 <runtime.newobject>
 130eea8: b0000021     	adrp	x1, 0x1313000 <main.main.(*Api).Auth.func36+0x1a0>
 130eeac: 910f4021     	add	x1, x1, #0x3d0
 130eeb0: f9000001     	str	x1, [x0]
 130eeb4: d00143bb     	adrp	x27, 0x3b84000 <crypto/internal/fips140deps/cpu.S390XHasSHA3>
 130eeb8: b94a7361     	ldr	w1, [x27, #0xa70]
 130eebc: 35000081     	cbnz	w1, 0x130eecc <main.main+0x2aac>
 130eec0: f9412fe4     	ldr	x4, [sp, #0x258]
 130eec4: f9413fe5     	ldr	x5, [sp, #0x278]
 130eec8: 14000005     	b	0x130eedc <main.main+0x2abc>
 130eecc: 97c5e5e1     	bl	0x488650 <runtime.gcWriteBarrier2>
 130eed0: f9412fe4     	ldr	x4, [sp, #0x258]
 130eed4: f9413fe5     	ldr	x5, [sp, #0x278]
 130eed8: a9001724     	stp	x4, x5, [x25]
 130eedc: a9009404     	stp	x4, x5, [x0, #0x8]
 130eee0: 90002dc1     	adrp	x1, 0x18c6000 <go:string.*+0x46508>
 130eee4: 9135e021     	add	x1, x1, #0xd78
 130eee8: d28005a2     	mov	x2, #0x2d               // =45
 130eeec: aa0003e3     	mov	x3, x0
 130eef0: f940b7e0     	ldr	x0, [sp, #0x168]
 130eef4: 97f2cc9f     	bl	0xfc2170 <github.com/gorilla/mux.(*Router).HandleFunc>
 130eef8: f90143e0     	str	x0, [sp, #0x280]
 130eefc: 900012e0     	adrp	x0, 0x156a000 <type:*+0x134180>
 130ef00: 91040000     	add	x0, x0, #0x100
 130ef04: 97c43993     	bl	0x41d550 <runtime.newobject>
 130ef08: b0002b84     	adrp	x4, 0x187f000 <type:*+0x449180>
 130ef0c: 913b8484     	add	x4, x4, #0xee1
 130ef10: b24007e5     	orr	x5, xzr, #0x3
 130ef14: a9001404     	stp	x4, x5, [x0]
 130ef18: d0002b84     	adrp	x4, 0x1880000 <go:string.*+0x508>
 130ef1c: 91147484     	add	x4, x4, #0x51d
 130ef20: b27e03e5     	orr	x5, xzr, #0x4
 130ef24: a9011404     	stp	x4, x5, [x0, #0x10]
 130ef28: aa0003e1     	mov	x1, x0
 130ef2c: b27f03e2     	orr	x2, xzr, #0x2
 130ef30: aa0203e3     	mov	x3, x2
 130ef34: f94143e0     	ldr	x0, [sp, #0x280]
 130ef38: 97f2e06e     	bl	0xfc70f0 <github.com/gorilla/mux.(*Route).Methods>
 130ef3c: b0001a80     	adrp	x0, 0x165f000 <type:*+0x229180>
 130ef40: 91028000     	add	x0, x0, #0xa0
 130ef44: 97c43983     	bl	0x41d550 <runtime.newobject>
 130ef48: d0000044     	adrp	x4, 0x1318000 <github.com/coroot/coroot/api.(*Api).AlertingRule-fm+0x40>
 130ef4c: 9105c084     	add	x4, x4, #0x170
 130ef50: f9000004     	str	x4, [x0]
 130ef54: f9412fe4     	ldr	x4, [sp, #0x258]
 130ef58: f9400485     	ldr	x5, [x4, #0x8]
 130ef5c: d00143bb     	adrp	x27, 0x3b84000 <crypto/internal/fips140deps/cpu.S390XHasSHA3>
 130ef60: b94a7366     	ldr	w6, [x27, #0xa70]
 130ef64: 34000066     	cbz	w6, 0x130ef70 <main.main+0x2b50>
 130ef68: 97c5e5b6     	bl	0x488640 <runtime.gcWriteBarrier1>
 130ef6c: f9000325     	str	x5, [x25]
 130ef70: f9013fe0     	str	x0, [sp, #0x278]
 130ef74: f9000405     	str	x5, [x0, #0x8]
 130ef78: f0001de0     	adrp	x0, 0x16cd000 <type:*+0x297180>
 130ef7c: 91290000     	add	x0, x0, #0xa40
 130ef80: 97c43974     	bl	0x41d550 <runtime.newobject>
 130ef84: b0000021     	adrp	x1, 0x1313000 <main.main.(*Api).Auth.func36+0x1a0>
 130ef88: 91080021     	add	x1, x1, #0x200
 130ef8c: f9000001     	str	x1, [x0]
 130ef90: d00143bb     	adrp	x27, 0x3b84000 <crypto/internal/fips140deps/cpu.S390XHasSHA3>
 130ef94: b94a7361     	ldr	w1, [x27, #0xa70]
 130ef98: 35000081     	cbnz	w1, 0x130efa8 <main.main+0x2b88>
 130ef9c: f9412fe4     	ldr	x4, [sp, #0x258]
 130efa0: f9413fe5     	ldr	x5, [sp, #0x278]
 130efa4: 14000005     	b	0x130efb8 <main.main+0x2b98>
 130efa8: 97c5e5aa     	bl	0x488650 <runtime.gcWriteBarrier2>
 130efac: f9412fe4     	ldr	x4, [sp, #0x258]
 130efb0: f9413fe5     	ldr	x5, [sp, #0x278]
 130efb4: a9001724     	stp	x4, x5, [x25]
 130efb8: a9009404     	stp	x4, x5, [x0, #0x8]
 130efbc: f0002d81     	adrp	x1, 0x18c1000 <go:string.*+0x41508>
 130efc0: 913af421     	add	x1, x1, #0xebd
 130efc4: d2800542     	mov	x2, #0x2a               // =42
 130efc8: aa0003e3     	mov	x3, x0
 130efcc: f940b7e0     	ldr	x0, [sp, #0x168]
 130efd0: 97f2cc68     	bl	0xfc2170 <github.com/gorilla/mux.(*Router).HandleFunc>
 130efd4: f90143e0     	str	x0, [sp, #0x280]
 130efd8: 900012e0     	adrp	x0, 0x156a000 <type:*+0x134180>
 130efdc: 91040000     	add	x0, x0, #0x100
 130efe0: 97c4395c     	bl	0x41d550 <runtime.newobject>
 130efe4: b0002b84     	adrp	x4, 0x187f000 <type:*+0x449180>
 130efe8: 913b8484     	add	x4, x4, #0xee1
 130efec: b24007e5     	orr	x5, xzr, #0x3
 130eff0: a9001404     	stp	x4, x5, [x0]
 130eff4: d0002b84     	adrp	x4, 0x1880000 <go:string.*+0x508>
 130eff8: 91147484     	add	x4, x4, #0x51d
 130effc: b27e03e5     	orr	x5, xzr, #0x4
 130f000: a9011404     	stp	x4, x5, [x0, #0x10]
 130f004: aa0003e1     	mov	x1, x0
 130f008: b27f03e2     	orr	x2, xzr, #0x2
 130f00c: aa0203e3     	mov	x3, x2
 130f010: f94143e0     	ldr	x0, [sp, #0x280]
 130f014: 97f2e037     	bl	0xfc70f0 <github.com/gorilla/mux.(*Route).Methods>
 130f018: 90001a80     	adrp	x0, 0x165f000 <type:*+0x229180>
 130f01c: 91028000     	add	x0, x0, #0xa0
 130f020: 97c4394c     	bl	0x41d550 <runtime.newobject>
 130f024: b0000044     	adrp	x4, 0x1318000 <github.com/coroot/coroot/api.(*Api).AlertingRule-fm+0x40>
 130f028: 91080084     	add	x4, x4, #0x200
 130f02c: f9000004     	str	x4, [x0]
 130f030: f9412fe4     	ldr	x4, [sp, #0x258]
 130f034: f9400485     	ldr	x5, [x4, #0x8]
 130f038: b00143bb     	adrp	x27, 0x3b84000 <crypto/internal/fips140deps/cpu.S390XHasSHA3>
 130f03c: b94a7366     	ldr	w6, [x27, #0xa70]
 130f040: 34000066     	cbz	w6, 0x130f04c <main.main+0x2c2c>
 130f044: 97c5e57f     	bl	0x488640 <runtime.gcWriteBarrier1>
 130f048: f9000325     	str	x5, [x25]
 130f04c: f9013fe0     	str	x0, [sp, #0x278]
 130f050: f9000405     	str	x5, [x0, #0x8]
 130f054: d0001de0     	adrp	x0, 0x16cd000 <type:*+0x297180>
 130f058: 91290000     	add	x0, x0, #0xa40
 130f05c: 97c4393d     	bl	0x41d550 <runtime.newobject>
 130f060: 90000021     	adrp	x1, 0x1313000 <main.main.(*Api).Auth.func36+0x1a0>
 130f064: 9100c021     	add	x1, x1, #0x30
 130f068: f9000001     	str	x1, [x0]
 130f06c: b00143bb     	adrp	x27, 0x3b84000 <crypto/internal/fips140deps/cpu.S390XHasSHA3>
 130f070: b94a7361     	ldr	w1, [x27, #0xa70]
 130f074: 35000081     	cbnz	w1, 0x130f084 <main.main+0x2c64>
 130f078: f9412fe4     	ldr	x4, [sp, #0x258]
 130f07c: f9413fe5     	ldr	x5, [sp, #0x278]
 130f080: 14000005     	b	0x130f094 <main.main+0x2c74>
 130f084: 97c5e573     	bl	0x488650 <runtime.gcWriteBarrier2>
 130f088: f9412fe4     	ldr	x4, [sp, #0x258]
 130f08c: f9413fe5     	ldr	x5, [sp, #0x278]
 130f090: a9001724     	stp	x4, x5, [x25]
 130f094: a9009404     	stp	x4, x5, [x0, #0x8]
 130f098: 90002da1     	adrp	x1, 0x18c3000 <go:string.*+0x43508>
 130f09c: 91288c21     	add	x1, x1, #0xa23
 130f0a0: d2800562     	mov	x2, #0x2b               // =43
 130f0a4: aa0003e3     	mov	x3, x0
 130f0a8: f940b7e0     	ldr	x0, [sp, #0x168]
 130f0ac: 97f2cc31     	bl	0xfc2170 <github.com/gorilla/mux.(*Router).HandleFunc>
 130f0b0: f90143e0     	str	x0, [sp, #0x280]
 130f0b4: f00012c0     	adrp	x0, 0x156a000 <type:*+0x134180>
 130f0b8: 91088000     	add	x0, x0, #0x220
 130f0bc: 97c43925     	bl	0x41d550 <runtime.newobject>
 130f0c0: 90002b84     	adrp	x4, 0x187f000 <type:*+0x449180>
 130f0c4: 913b8484     	add	x4, x4, #0xee1
 130f0c8: b24007e3     	orr	x3, xzr, #0x3
 130f0cc: a9000c04     	stp	x4, x3, [x0]
 130f0d0: b0002b84     	adrp	x4, 0x1880000 <go:string.*+0x508>
 130f0d4: 91147484     	add	x4, x4, #0x51d
 130f0d8: b27e03e5     	orr	x5, xzr, #0x4
 130f0dc: a9011404     	stp	x4, x5, [x0, #0x10]
 130f0e0: f0002b84     	adrp	x4, 0x1882000 <go:string.*+0x2508>
 130f0e4: 911f8c84     	add	x4, x4, #0x7e3
 130f0e8: b27f07e5     	orr	x5, xzr, #0x6
 130f0ec: a9021404     	stp	x4, x5, [x0, #0x20]
 130f0f0: aa0003e1     	mov	x1, x0
 130f0f4: aa0303e2     	mov	x2, x3
 130f0f8: f94143e0     	ldr	x0, [sp, #0x280]
 130f0fc: 97f2dffd     	bl	0xfc70f0 <github.com/gorilla/mux.(*Route).Methods>
 130f100: 90001a80     	adrp	x0, 0x165f000 <type:*+0x229180>
 130f104: 91028000     	add	x0, x0, #0xa0
 130f108: 97c43912     	bl	0x41d550 <runtime.newobject>
 130f10c: b0000044     	adrp	x4, 0x1318000 <github.com/coroot/coroot/api.(*Api).AlertingRule-fm+0x40>
 130f110: 910a4084     	add	x4, x4, #0x290
 130f114: f9000004     	str	x4, [x0]
 130f118: f9412fe4     	ldr	x4, [sp, #0x258]
 130f11c: f9400485     	ldr	x5, [x4, #0x8]
 130f120: b00143bb     	adrp	x27, 0x3b84000 <crypto/internal/fips140deps/cpu.S390XHasSHA3>
 130f124: b94a7366     	ldr	w6, [x27, #0xa70]
 130f128: 34000066     	cbz	w6, 0x130f134 <main.main+0x2d14>
 130f12c: 97c5e545     	bl	0x488640 <runtime.gcWriteBarrier1>
 130f130: f9000325     	str	x5, [x25]
 130f134: f9013fe0     	str	x0, [sp, #0x278]
 130f138: f9000405     	str	x5, [x0, #0x8]
 130f13c: d0001de0     	adrp	x0, 0x16cd000 <type:*+0x297180>
 130f140: 91290000     	add	x0, x0, #0xa40
 130f144: 97c43903     	bl	0x41d550 <runtime.newobject>
 130f148: f0000001     	adrp	x1, 0x1312000 <main.main.(*Api).Auth.func44+0x20>
 130f14c: 91398021     	add	x1, x1, #0xe60
 130f150: f9000001     	str	x1, [x0]
 130f154: b00143bb     	adrp	x27, 0x3b84000 <crypto/internal/fips140deps/cpu.S390XHasSHA3>
 130f158: b94a7361     	ldr	w1, [x27, #0xa70]
 130f15c: 35000081     	cbnz	w1, 0x130f16c <main.main+0x2d4c>
 130f160: f9412fe4     	ldr	x4, [sp, #0x258]
 130f164: f9413fe5     	ldr	x5, [sp, #0x278]
 130f168: 14000005     	b	0x130f17c <main.main+0x2d5c>
 130f16c: 97c5e539     	bl	0x488650 <runtime.gcWriteBarrier2>
 130f170: f9412fe4     	ldr	x4, [sp, #0x258]
 130f174: f9413fe5     	ldr	x5, [sp, #0x278]
 130f178: a9001724     	stp	x4, x5, [x25]
 130f17c: a9009404     	stp	x4, x5, [x0, #0x8]
 130f180: d0002d21     	adrp	x1, 0x18b5000 <go:string.*+0x35508>
 130f184: 91258021     	add	x1, x1, #0x960
 130f188: d2800462     	mov	x2, #0x23               // =35
 130f18c: aa0003e3     	mov	x3, x0
 130f190: f940b7e0     	ldr	x0, [sp, #0x168]
 130f194: 97f2cbf7     	bl	0xfc2170 <github.com/gorilla/mux.(*Router).HandleFunc>
 130f198: f90143e0     	str	x0, [sp, #0x280]
 130f19c: f00012c0     	adrp	x0, 0x156a000 <type:*+0x134180>
 130f1a0: 91040000     	add	x0, x0, #0x100
 130f1a4: 97c438eb     	bl	0x41d550 <runtime.newobject>
 130f1a8: 90002b84     	adrp	x4, 0x187f000 <type:*+0x449180>
 130f1ac: 913b8484     	add	x4, x4, #0xee1
 130f1b0: b24007e5     	orr	x5, xzr, #0x3
 130f1b4: a9001404     	stp	x4, x5, [x0]
 130f1b8: 90002b84     	adrp	x4, 0x187f000 <type:*+0x449180>
 130f1bc: 913b9084     	add	x4, x4, #0xee4
 130f1c0: a9011404     	stp	x4, x5, [x0, #0x10]
 130f1c4: aa0003e1     	mov	x1, x0
 130f1c8: b27f03e2     	orr	x2, xzr, #0x2
 130f1cc: aa0203e3     	mov	x3, x2
 130f1d0: f94143e0     	ldr	x0, [sp, #0x280]
 130f1d4: 97f2dfc7     	bl	0xfc70f0 <github.com/gorilla/mux.(*Route).Methods>
 130f1d8: 90001a80     	adrp	x0, 0x165f000 <type:*+0x229180>
 130f1dc: 91028000     	add	x0, x0, #0xa0
 130f1e0: 97c438dc     	bl	0x41d550 <runtime.newobject>
 130f1e4: b0000044     	adrp	x4, 0x1318000 <github.com/coroot/coroot/api.(*Api).AlertingRule-fm+0x40>
 130f1e8: 910c8084     	add	x4, x4, #0x320
 130f1ec: f9000004     	str	x4, [x0]
 130f1f0: f9412fe4     	ldr	x4, [sp, #0x258]
 130f1f4: f9400485     	ldr	x5, [x4, #0x8]
 130f1f8: b00143bb     	adrp	x27, 0x3b84000 <crypto/internal/fips140deps/cpu.S390XHasSHA3>
 130f1fc: b94a7366     	ldr	w6, [x27, #0xa70]
 130f200: 34000066     	cbz	w6, 0x130f20c <main.main+0x2dec>
 130f204: 97c5e50f     	bl	0x488640 <runtime.gcWriteBarrier1>
 130f208: f9000325     	str	x5, [x25]
 130f20c: f9013fe0     	str	x0, [sp, #0x278]
 130f210: f9000405     	str	x5, [x0, #0x8]
 130f214: d0001de0     	adrp	x0, 0x16cd000 <type:*+0x297180>
 130f218: 91290000     	add	x0, x0, #0xa40
 130f21c: 97c438cd     	bl	0x41d550 <runtime.newobject>
 130f220: f0000001     	adrp	x1, 0x1312000 <main.main.(*Api).Auth.func44+0x20>
 130f224: 91324021     	add	x1, x1, #0xc90
 130f228: f9000001     	str	x1, [x0]
 130f22c: b00143bb     	adrp	x27, 0x3b84000 <crypto/internal/fips140deps/cpu.S390XHasSHA3>
 130f230: b94a7361     	ldr	w1, [x27, #0xa70]
 130f234: 35000081     	cbnz	w1, 0x130f244 <main.main+0x2e24>
 130f238: f9412fe4     	ldr	x4, [sp, #0x258]
 130f23c: f9413fe5     	ldr	x5, [sp, #0x278]
 130f240: 14000005     	b	0x130f254 <main.main+0x2e34>
 130f244: 97c5e503     	bl	0x488650 <runtime.gcWriteBarrier2>
 130f248: f9412fe4     	ldr	x4, [sp, #0x258]
 130f24c: f9413fe5     	ldr	x5, [sp, #0x278]
 130f250: a9001724     	stp	x4, x5, [x25]
 130f254: a9009404     	stp	x4, x5, [x0, #0x8]
 130f258: d0002d81     	adrp	x1, 0x18c1000 <go:string.*+0x41508>
 130f25c: 913b9c21     	add	x1, x1, #0xee7
 130f260: d2800542     	mov	x2, #0x2a               // =42
 130f264: aa0003e3     	mov	x3, x0
 130f268: f940b7e0     	ldr	x0, [sp, #0x168]
 130f26c: 97f2cbc1     	bl	0xfc2170 <github.com/gorilla/mux.(*Router).HandleFunc>
 130f270: f90143e0     	str	x0, [sp, #0x280]
 130f274: f00012c0     	adrp	x0, 0x156a000 <type:*+0x134180>
 130f278: 910a0000     	add	x0, x0, #0x280
 130f27c: 97c438b5     	bl	0x41d550 <runtime.newobject>
 130f280: 90002b84     	adrp	x4, 0x187f000 <type:*+0x449180>
 130f284: 913b8484     	add	x4, x4, #0xee1
 130f288: b24007e5     	orr	x5, xzr, #0x3
 130f28c: a9001404     	stp	x4, x5, [x0]
 130f290: 90002b84     	adrp	x4, 0x187f000 <type:*+0x449180>
 130f294: 913b9084     	add	x4, x4, #0xee4
 130f298: a9011404     	stp	x4, x5, [x0, #0x10]
 130f29c: f0002b84     	adrp	x4, 0x1882000 <go:string.*+0x2508>
 130f2a0: 911f8c84     	add	x4, x4, #0x7e3
 130f2a4: b27f07e5     	orr	x5, xzr, #0x6
 130f2a8: a9021404     	stp	x4, x5, [x0, #0x20]
 130f2ac: b0002b84     	adrp	x4, 0x1880000 <go:string.*+0x508>
 130f2b0: 91147484     	add	x4, x4, #0x51d
 130f2b4: b27e03e3     	orr	x3, xzr, #0x4
 130f2b8: a9030c04     	stp	x4, x3, [x0, #0x30]
 130f2bc: aa0003e1     	mov	x1, x0
 130f2c0: aa0303e2     	mov	x2, x3
 130f2c4: f94143e0     	ldr	x0, [sp, #0x280]
 130f2c8: 97f2df8a     	bl	0xfc70f0 <github.com/gorilla/mux.(*Route).Methods>
 130f2cc: 90001a80     	adrp	x0, 0x165f000 <type:*+0x229180>
 130f2d0: 91028000     	add	x0, x0, #0xa0
 130f2d4: 97c4389f     	bl	0x41d550 <runtime.newobject>
 130f2d8: b0000044     	adrp	x4, 0x1318000 <github.com/coroot/coroot/api.(*Api).AlertingRule-fm+0x40>
 130f2dc: 910ec084     	add	x4, x4, #0x3b0
 130f2e0: f9000004     	str	x4, [x0]
 130f2e4: f9412fe4     	ldr	x4, [sp, #0x258]
 130f2e8: f9400485     	ldr	x5, [x4, #0x8]
 130f2ec: b00143bb     	adrp	x27, 0x3b84000 <crypto/internal/fips140deps/cpu.S390XHasSHA3>
 130f2f0: b94a7366     	ldr	w6, [x27, #0xa70]
 130f2f4: 34000066     	cbz	w6, 0x130f300 <main.main+0x2ee0>
 130f2f8: 97c5e4d2     	bl	0x488640 <runtime.gcWriteBarrier1>
 130f2fc: f9000325     	str	x5, [x25]
 130f300: f9013fe0     	str	x0, [sp, #0x278]
 130f304: f9000405     	str	x5, [x0, #0x8]
 130f308: d0001de0     	adrp	x0, 0x16cd000 <type:*+0x297180>
 130f30c: 91290000     	add	x0, x0, #0xa40
 130f310: 97c43890     	bl	0x41d550 <runtime.newobject>
 130f314: f0000001     	adrp	x1, 0x1312000 <main.main.(*Api).Auth.func44+0x20>
 130f318: 912b0021     	add	x1, x1, #0xac0
 130f31c: f9000001     	str	x1, [x0]
 130f320: b00143bb     	adrp	x27, 0x3b84000 <crypto/internal/fips140deps/cpu.S390XHasSHA3>
 130f324: b94a7361     	ldr	w1, [x27, #0xa70]
 130f328: 35000081     	cbnz	w1, 0x130f338 <main.main+0x2f18>
 130f32c: f9412fe4     	ldr	x4, [sp, #0x258]
 130f330: f9413fe5     	ldr	x5, [sp, #0x278]
 130f334: 14000005     	b	0x130f348 <main.main+0x2f28>
 130f338: 97c5e4c6     	bl	0x488650 <runtime.gcWriteBarrier2>
 130f33c: f9412fe4     	ldr	x4, [sp, #0x258]
 130f340: f9413fe5     	ldr	x5, [sp, #0x278]
 130f344: a9001724     	stp	x4, x5, [x25]
 130f348: a9009404     	stp	x4, x5, [x0, #0x8]
 130f34c: f0002ce1     	adrp	x1, 0x18ae000 <go:string.*+0x2e508>
 130f350: 913c4821     	add	x1, x1, #0xf12
 130f354: b27b03e2     	orr	x2, xzr, #0x20
 130f358: aa0003e3     	mov	x3, x0
 130f35c: f940b7e0     	ldr	x0, [sp, #0x168]
 130f360: 97f2cb84     	bl	0xfc2170 <github.com/gorilla/mux.(*Router).HandleFunc>
 130f364: f90143e0     	str	x0, [sp, #0x280]
 130f368: f00012c0     	adrp	x0, 0x156a000 <type:*+0x134180>
 130f36c: 91010000     	add	x0, x0, #0x40
 130f370: 97c43878     	bl	0x41d550 <runtime.newobject>
 130f374: 90002b84     	adrp	x4, 0x187f000 <type:*+0x449180>
 130f378: 913b8484     	add	x4, x4, #0xee1
 130f37c: b24007e5     	orr	x5, xzr, #0x3
 130f380: a9001404     	stp	x4, x5, [x0]
 130f384: aa0003e1     	mov	x1, x0
 130f388: b24003e2     	orr	x2, xzr, #0x1
 130f38c: aa0203e3     	mov	x3, x2
 130f390: f94143e0     	ldr	x0, [sp, #0x280]
 130f394: 97f2df57     	bl	0xfc70f0 <github.com/gorilla/mux.(*Route).Methods>
 130f398: 90001a80     	adrp	x0, 0x165f000 <type:*+0x229180>
 130f39c: 91048000     	add	x0, x0, #0x120
 130f3a0: 97c4386c     	bl	0x41d550 <runtime.newobject>
 130f3a4: b0000044     	adrp	x4, 0x1318000 <github.com/coroot/coroot/api.(*Api).AlertingRule-fm+0x40>
 130f3a8: 91110084     	add	x4, x4, #0x440
 130f3ac: f9000004     	str	x4, [x0]
 130f3b0: b00143bb     	adrp	x27, 0x3b84000 <crypto/internal/fips140deps/cpu.S390XHasSHA3>
 130f3b4: b94a7364     	ldr	w4, [x27, #0xa70]
 130f3b8: 35000064     	cbnz	w4, 0x130f3c4 <main.main+0x2fa4>
 130f3bc: f9412fe1     	ldr	x1, [sp, #0x258]
 130f3c0: 14000004     	b	0x130f3d0 <main.main+0x2fb0>
 130f3c4: 97c5e49f     	bl	0x488640 <runtime.gcWriteBarrier1>
 130f3c8: f9412fe1     	ldr	x1, [sp, #0x258]
 130f3cc: f9000321     	str	x1, [x25]
 130f3d0: f9014fe0     	str	x0, [sp, #0x298]
 130f3d4: f9000401     	str	x1, [x0, #0x8]
 130f3d8: d0001de0     	adrp	x0, 0x16cd000 <type:*+0x297180>
 130f3dc: 91290000     	add	x0, x0, #0xa40
 130f3e0: 97c4385c     	bl	0x41d550 <runtime.newobject>
 130f3e4: f0000001     	adrp	x1, 0x1312000 <main.main.(*Api).Auth.func44+0x20>
 130f3e8: 9123c021     	add	x1, x1, #0x8f0
 130f3ec: f9000001     	str	x1, [x0]
 130f3f0: b00143bb     	adrp	x27, 0x3b84000 <crypto/internal/fips140deps/cpu.S390XHasSHA3>
 130f3f4: b94a7361     	ldr	w1, [x27, #0xa70]
 130f3f8: 35000081     	cbnz	w1, 0x130f408 <main.main+0x2fe8>
 130f3fc: f9412fe4     	ldr	x4, [sp, #0x258]
 130f400: f9414fe5     	ldr	x5, [sp, #0x298]
 130f404: 14000005     	b	0x130f418 <main.main+0x2ff8>
 130f408: 97c5e492     	bl	0x488650 <runtime.gcWriteBarrier2>
 130f40c: f9412fe4     	ldr	x4, [sp, #0x258]
 130f410: f9414fe5     	ldr	x5, [sp, #0x298]
 130f414: a9001724     	stp	x4, x5, [x25]
 130f418: a9009404     	stp	x4, x5, [x0, #0x8]
 130f41c: 90002d41     	adrp	x1, 0x18b7000 <go:string.*+0x37508>
 130f420: 911dd421     	add	x1, x1, #0x775
 130f424: d2800482     	mov	x2, #0x24               // =36
 130f428: aa0003e3     	mov	x3, x0
 130f42c: f940b7e0     	ldr	x0, [sp, #0x168]
 130f430: 97f2cb50     	bl	0xfc2170 <github.com/gorilla/mux.(*Router).HandleFunc>
 130f434: f90143e0     	str	x0, [sp, #0x280]
 130f438: f00012c0     	adrp	x0, 0x156a000 <type:*+0x134180>
 130f43c: 91010000     	add	x0, x0, #0x40
 130f440: 97c43844     	bl	0x41d550 <runtime.newobject>
 130f444: 90002b84     	adrp	x4, 0x187f000 <type:*+0x449180>
 130f448: 913b8484     	add	x4, x4, #0xee1
 130f44c: b24007e5     	orr	x5, xzr, #0x3
 130f450: a9001404     	stp	x4, x5, [x0]
 130f454: aa0003e1     	mov	x1, x0
 130f458: b24003e2     	orr	x2, xzr, #0x1
 130f45c: aa0203e3     	mov	x3, x2
 130f460: f94143e0     	ldr	x0, [sp, #0x280]
 130f464: 97f2df23     	bl	0xfc70f0 <github.com/gorilla/mux.(*Route).Methods>
 130f468: 90001a80     	adrp	x0, 0x165f000 <type:*+0x229180>
 130f46c: 91028000     	add	x0, x0, #0xa0
 130f470: 97c43838     	bl	0x41d550 <runtime.newobject>
 130f474: b0000044     	adrp	x4, 0x1318000 <github.com/coroot/coroot/api.(*Api).AlertingRule-fm+0x40>
 130f478: 91134084     	add	x4, x4, #0x4d0
 130f47c: f9000004     	str	x4, [x0]
 130f480: f9412fe4     	ldr	x4, [sp, #0x258]
 130f484: f9400485     	ldr	x5, [x4, #0x8]
 130f488: b00143bb     	adrp	x27, 0x3b84000 <crypto/internal/fips140deps/cpu.S390XHasSHA3>
 130f48c: b94a7366     	ldr	w6, [x27, #0xa70]
 130f490: 34000066     	cbz	w6, 0x130f49c <main.main+0x307c>
 130f494: 97c5e46b     	bl	0x488640 <runtime.gcWriteBarrier1>
 130f498: f9000325     	str	x5, [x25]
 130f49c: f9013fe0     	str	x0, [sp, #0x278]
 130f4a0: f9000405     	str	x5, [x0, #0x8]
 130f4a4: d0001de0     	adrp	x0, 0x16cd000 <type:*+0x297180>
 130f4a8: 91290000     	add	x0, x0, #0xa40
 130f4ac: 97c43829     	bl	0x41d550 <runtime.newobject>
 130f4b0: f0000001     	adrp	x1, 0x1312000 <main.main.(*Api).Auth.func44+0x20>
 130f4b4: 911c8021     	add	x1, x1, #0x720
 130f4b8: f9000001     	str	x1, [x0]
 130f4bc: b00143bb     	adrp	x27, 0x3b84000 <crypto/internal/fips140deps/cpu.S390XHasSHA3>
 130f4c0: b94a7361     	ldr	w1, [x27, #0xa70]
 130f4c4: 35000081     	cbnz	w1, 0x130f4d4 <main.main+0x30b4>
 130f4c8: f9412fe4     	ldr	x4, [sp, #0x258]
 130f4cc: f9413fe5     	ldr	x5, [sp, #0x278]
 130f4d0: 14000005     	b	0x130f4e4 <main.main+0x30c4>
 130f4d4: 97c5e45f     	bl	0x488650 <runtime.gcWriteBarrier2>
 130f4d8: f9412fe4     	ldr	x4, [sp, #0x258]
 130f4dc: f9413fe5     	ldr	x5, [sp, #0x278]
 130f4e0: a9001724     	stp	x4, x5, [x25]
 130f4e4: a9009404     	stp	x4, x5, [x0, #0x8]
 130f4e8: d0002e21     	adrp	x1, 0x18d5000 <go:string.*+0x55508>
 130f4ec: 9124b021     	add	x1, x1, #0x92c
 130f4f0: d2800722     	mov	x2, #0x39               // =57
 130f4f4: aa0003e3     	mov	x3, x0
 130f4f8: f940b7e0     	ldr	x0, [sp, #0x168]
 130f4fc: 97f2cb1d     	bl	0xfc2170 <github.com/gorilla/mux.(*Router).HandleFunc>
 130f500: f90143e0     	str	x0, [sp, #0x280]
 130f504: f00012c0     	adrp	x0, 0x156a000 <type:*+0x134180>
 130f508: 91040000     	add	x0, x0, #0x100
 130f50c: 97c43811     	bl	0x41d550 <runtime.newobject>
 130f510: 90002b84     	adrp	x4, 0x187f000 <type:*+0x449180>
 130f514: 913b8484     	add	x4, x4, #0xee1
 130f518: b24007e5     	orr	x5, xzr, #0x3
 130f51c: a9001404     	stp	x4, x5, [x0]
 130f520: b0002b84     	adrp	x4, 0x1880000 <go:string.*+0x508>
 130f524: 91147484     	add	x4, x4, #0x51d
 130f528: b27e03e5     	orr	x5, xzr, #0x4
 130f52c: a9011404     	stp	x4, x5, [x0, #0x10]
 130f530: aa0003e1     	mov	x1, x0
 130f534: b27f03e2     	orr	x2, xzr, #0x2
 130f538: aa0203e3     	mov	x3, x2
 130f53c: f94143e0     	ldr	x0, [sp, #0x280]
 130f540: 97f2deec     	bl	0xfc70f0 <github.com/gorilla/mux.(*Route).Methods>
 130f544: 90001a80     	adrp	x0, 0x165f000 <type:*+0x229180>
 130f548: 91028000     	add	x0, x0, #0xa0
 130f54c: 97c43801     	bl	0x41d550 <runtime.newobject>
 130f550: b0000044     	adrp	x4, 0x1318000 <github.com/coroot/coroot/api.(*Api).AlertingRule-fm+0x40>
 130f554: 91158084     	add	x4, x4, #0x560
 130f558: f9000004     	str	x4, [x0]
 130f55c: f9412fe4     	ldr	x4, [sp, #0x258]
 130f560: f9400485     	ldr	x5, [x4, #0x8]
 130f564: b00143bb     	adrp	x27, 0x3b84000 <crypto/internal/fips140deps/cpu.S390XHasSHA3>
 130f568: b94a7366     	ldr	w6, [x27, #0xa70]
 130f56c: 34000066     	cbz	w6, 0x130f578 <main.main+0x3158>
 130f570: 97c5e434     	bl	0x488640 <runtime.gcWriteBarrier1>
 130f574: f9000325     	str	x5, [x25]
 130f578: f9013fe0     	str	x0, [sp, #0x278]
 130f57c: f9000405     	str	x5, [x0, #0x8]
 130f580: d0001de0     	adrp	x0, 0x16cd000 <type:*+0x297180>
 130f584: 91290000     	add	x0, x0, #0xa40
 130f588: 97c437f2     	bl	0x41d550 <runtime.newobject>
 130f58c: f0000001     	adrp	x1, 0x1312000 <main.main.(*Api).Auth.func44+0x20>
 130f590: 91154021     	add	x1, x1, #0x550
 130f594: f9000001     	str	x1, [x0]
 130f598: b00143bb     	adrp	x27, 0x3b84000 <crypto/internal/fips140deps/cpu.S390XHasSHA3>
 130f59c: b94a7361     	ldr	w1, [x27, #0xa70]
 130f5a0: 35000081     	cbnz	w1, 0x130f5b0 <main.main+0x3190>
 130f5a4: f9412fe4     	ldr	x4, [sp, #0x258]
 130f5a8: f9413fe5     	ldr	x5, [sp, #0x278]
 130f5ac: 14000005     	b	0x130f5c0 <main.main+0x31a0>
 130f5b0: 97c5e428     	bl	0x488650 <runtime.gcWriteBarrier2>
 130f5b4: f9412fe4     	ldr	x4, [sp, #0x258]
 130f5b8: f9413fe5     	ldr	x5, [sp, #0x278]
 130f5bc: a9001724     	stp	x4, x5, [x25]
 130f5c0: a9009404     	stp	x4, x5, [x0, #0x8]
 130f5c4: 90002e21     	adrp	x1, 0x18d3000 <go:string.*+0x53508>
 130f5c8: 911bac21     	add	x1, x1, #0x6eb
 130f5cc: d28006e2     	mov	x2, #0x37               // =55
 130f5d0: aa0003e3     	mov	x3, x0
 130f5d4: f940b7e0     	ldr	x0, [sp, #0x168]
 130f5d8: 97f2cae6     	bl	0xfc2170 <github.com/gorilla/mux.(*Router).HandleFunc>
 130f5dc: f90143e0     	str	x0, [sp, #0x280]
 130f5e0: f00012c0     	adrp	x0, 0x156a000 <type:*+0x134180>
 130f5e4: 91040000     	add	x0, x0, #0x100
 130f5e8: 97c437da     	bl	0x41d550 <runtime.newobject>
 130f5ec: 90002b84     	adrp	x4, 0x187f000 <type:*+0x449180>
 130f5f0: 913b8484     	add	x4, x4, #0xee1
 130f5f4: b24007e5     	orr	x5, xzr, #0x3
 130f5f8: a9001404     	stp	x4, x5, [x0]
 130f5fc: b0002b84     	adrp	x4, 0x1880000 <go:string.*+0x508>
 130f600: 91147484     	add	x4, x4, #0x51d
 130f604: b27e03e5     	orr	x5, xzr, #0x4
 130f608: a9011404     	stp	x4, x5, [x0, #0x10]
 130f60c: aa0003e1     	mov	x1, x0
 130f610: b27f03e2     	orr	x2, xzr, #0x2
 130f614: aa0203e3     	mov	x3, x2
 130f618: f94143e0     	ldr	x0, [sp, #0x280]
 130f61c: 97f2deb5     	bl	0xfc70f0 <github.com/gorilla/mux.(*Route).Methods>
 130f620: 90001a80     	adrp	x0, 0x165f000 <type:*+0x229180>
 130f624: 91028000     	add	x0, x0, #0xa0
 130f628: 97c437ca     	bl	0x41d550 <runtime.newobject>
 130f62c: b0000044     	adrp	x4, 0x1318000 <github.com/coroot/coroot/api.(*Api).AlertingRule-fm+0x40>
 130f630: 9117c084     	add	x4, x4, #0x5f0
 130f634: f9000004     	str	x4, [x0]
 130f638: f9412fe4     	ldr	x4, [sp, #0x258]
 130f63c: f9400485     	ldr	x5, [x4, #0x8]
 130f640: b00143bb     	adrp	x27, 0x3b84000 <crypto/internal/fips140deps/cpu.S390XHasSHA3>
 130f644: b94a7366     	ldr	w6, [x27, #0xa70]
 130f648: 34000066     	cbz	w6, 0x130f654 <main.main+0x3234>
 130f64c: 97c5e3fd     	bl	0x488640 <runtime.gcWriteBarrier1>
 130f650: f9000325     	str	x5, [x25]
 130f654: f9013fe0     	str	x0, [sp, #0x278]
 130f658: f9000405     	str	x5, [x0, #0x8]
 130f65c: d0001de0     	adrp	x0, 0x16cd000 <type:*+0x297180>
 130f660: 91290000     	add	x0, x0, #0xa40
 130f664: 97c437bb     	bl	0x41d550 <runtime.newobject>
 130f668: f0000001     	adrp	x1, 0x1312000 <main.main.(*Api).Auth.func44+0x20>
 130f66c: 910e0021     	add	x1, x1, #0x380
 130f670: f9000001     	str	x1, [x0]
 130f674: b00143bb     	adrp	x27, 0x3b84000 <crypto/internal/fips140deps/cpu.S390XHasSHA3>
 130f678: b94a7361     	ldr	w1, [x27, #0xa70]
 130f67c: 35000081     	cbnz	w1, 0x130f68c <main.main+0x326c>
 130f680: f9412fe4     	ldr	x4, [sp, #0x258]
 130f684: f9413fe5     	ldr	x5, [sp, #0x278]
 130f688: 14000005     	b	0x130f69c <main.main+0x327c>
 130f68c: 97c5e3f1     	bl	0x488650 <runtime.gcWriteBarrier2>
 130f690: f9412fe4     	ldr	x4, [sp, #0x258]
 130f694: f9413fe5     	ldr	x5, [sp, #0x278]
 130f698: a9001724     	stp	x4, x5, [x25]
 130f69c: a9009404     	stp	x4, x5, [x0, #0x8]
 130f6a0: d0002d81     	adrp	x1, 0x18c1000 <go:string.*+0x41508>
 130f6a4: 913c4421     	add	x1, x1, #0xf11
 130f6a8: d2800542     	mov	x2, #0x2a               // =42
 130f6ac: aa0003e3     	mov	x3, x0
 130f6b0: f940b7e0     	ldr	x0, [sp, #0x168]
 130f6b4: 97f2caaf     	bl	0xfc2170 <github.com/gorilla/mux.(*Router).HandleFunc>
 130f6b8: f90143e0     	str	x0, [sp, #0x280]
 130f6bc: f00012c0     	adrp	x0, 0x156a000 <type:*+0x134180>
 130f6c0: 91040000     	add	x0, x0, #0x100
 130f6c4: 97c437a3     	bl	0x41d550 <runtime.newobject>
 130f6c8: 90002b84     	adrp	x4, 0x187f000 <type:*+0x449180>
 130f6cc: 913b8484     	add	x4, x4, #0xee1
 130f6d0: b24007e5     	orr	x5, xzr, #0x3
 130f6d4: a9001404     	stp	x4, x5, [x0]
 130f6d8: b0002b84     	adrp	x4, 0x1880000 <go:string.*+0x508>
 130f6dc: 91147484     	add	x4, x4, #0x51d
 130f6e0: b27e03e5     	orr	x5, xzr, #0x4
 130f6e4: a9011404     	stp	x4, x5, [x0, #0x10]
 130f6e8: aa0003e1     	mov	x1, x0
 130f6ec: b27f03e2     	orr	x2, xzr, #0x2
 130f6f0: aa0203e3     	mov	x3, x2
 130f6f4: f94143e0     	ldr	x0, [sp, #0x280]
 130f6f8: 97f2de7e     	bl	0xfc70f0 <github.com/gorilla/mux.(*Route).Methods>
 130f6fc: 90001a80     	adrp	x0, 0x165f000 <type:*+0x229180>
 130f700: 91028000     	add	x0, x0, #0xa0
 130f704: 97c43793     	bl	0x41d550 <runtime.newobject>
 130f708: b0000044     	adrp	x4, 0x1318000 <github.com/coroot/coroot/api.(*Api).AlertingRule-fm+0x40>
 130f70c: 911a0084     	add	x4, x4, #0x680
 130f710: f9000004     	str	x4, [x0]
 130f714: f9412fe4     	ldr	x4, [sp, #0x258]
 130f718: f9400485     	ldr	x5, [x4, #0x8]
 130f71c: b00143bb     	adrp	x27, 0x3b84000 <crypto/internal/fips140deps/cpu.S390XHasSHA3>
 130f720: b94a7366     	ldr	w6, [x27, #0xa70]
 130f724: 34000066     	cbz	w6, 0x130f730 <main.main+0x3310>
 130f728: 97c5e3c6     	bl	0x488640 <runtime.gcWriteBarrier1>
 130f72c: f9000325     	str	x5, [x25]
 130f730: f9013fe0     	str	x0, [sp, #0x278]
 130f734: f9000405     	str	x5, [x0, #0x8]
 130f738: d0001de0     	adrp	x0, 0x16cd000 <type:*+0x297180>
 130f73c: 91290000     	add	x0, x0, #0xa40
 130f740: 97c43784     	bl	0x41d550 <runtime.newobject>
 130f744: f0000001     	adrp	x1, 0x1312000 <main.main.(*Api).Auth.func44+0x20>
 130f748: 9106c021     	add	x1, x1, #0x1b0
 130f74c: f9000001     	str	x1, [x0]
 130f750: b00143bb     	adrp	x27, 0x3b84000 <crypto/internal/fips140deps/cpu.S390XHasSHA3>
 130f754: b94a7361     	ldr	w1, [x27, #0xa70]
 130f758: 35000081     	cbnz	w1, 0x130f768 <main.main+0x3348>
 130f75c: f9412fe4     	ldr	x4, [sp, #0x258]
 130f760: f9413fe5     	ldr	x5, [sp, #0x278]
 130f764: 14000005     	b	0x130f778 <main.main+0x3358>
 130f768: 97c5e3ba     	bl	0x488650 <runtime.gcWriteBarrier2>
 130f76c: f9412fe4     	ldr	x4, [sp, #0x258]
 130f770: f9413fe5     	ldr	x5, [sp, #0x278]
 130f774: a9001724     	stp	x4, x5, [x25]
 130f778: a9009404     	stp	x4, x5, [x0, #0x8]
 130f77c: f0002d61     	adrp	x1, 0x18be000 <go:string.*+0x3e508>
 130f780: 9121e021     	add	x1, x1, #0x878
 130f784: d2800502     	mov	x2, #0x28               // =40
 130f788: aa0003e3     	mov	x3, x0
 130f78c: f940b7e0     	ldr	x0, [sp, #0x168]
 130f790: 97f2ca78     	bl	0xfc2170 <github.com/gorilla/mux.(*Router).HandleFunc>
 130f794: f90143e0     	str	x0, [sp, #0x280]
 130f798: f00012c0     	adrp	x0, 0x156a000 <type:*+0x134180>
 130f79c: 91040000     	add	x0, x0, #0x100
 130f7a0: 97c4376c     	bl	0x41d550 <runtime.newobject>
 130f7a4: 90002b84     	adrp	x4, 0x187f000 <type:*+0x449180>
 130f7a8: 913b8484     	add	x4, x4, #0xee1
 130f7ac: b24007e5     	orr	x5, xzr, #0x3
 130f7b0: a9001404     	stp	x4, x5, [x0]
 130f7b4: b0002b84     	adrp	x4, 0x1880000 <go:string.*+0x508>
 130f7b8: 91147484     	add	x4, x4, #0x51d
 130f7bc: b27e03e5     	orr	x5, xzr, #0x4
 130f7c0: a9011404     	stp	x4, x5, [x0, #0x10]
 130f7c4: aa0003e1     	mov	x1, x0
 130f7c8: b27f03e2     	orr	x2, xzr, #0x2
 130f7cc: aa0203e3     	mov	x3, x2
 130f7d0: f94143e0     	ldr	x0, [sp, #0x280]
 130f7d4: 97f2de47     	bl	0xfc70f0 <github.com/gorilla/mux.(*Route).Methods>
 130f7d8: 90001a80     	adrp	x0, 0x165f000 <type:*+0x229180>
 130f7dc: 91028000     	add	x0, x0, #0xa0
 130f7e0: 97c4375c     	bl	0x41d550 <runtime.newobject>
 130f7e4: b0000044     	adrp	x4, 0x1318000 <github.com/coroot/coroot/api.(*Api).AlertingRule-fm+0x40>
 130f7e8: 911c4084     	add	x4, x4, #0x710
 130f7ec: f9000004     	str	x4, [x0]
 130f7f0: f9412fe4     	ldr	x4, [sp, #0x258]
 130f7f4: f9400485     	ldr	x5, [x4, #0x8]
 130f7f8: b00143bb     	adrp	x27, 0x3b84000 <crypto/internal/fips140deps/cpu.S390XHasSHA3>
 130f7fc: b94a7366     	ldr	w6, [x27, #0xa70]
 130f800: 34000066     	cbz	w6, 0x130f80c <main.main+0x33ec>
 130f804: 97c5e38f     	bl	0x488640 <runtime.gcWriteBarrier1>
 130f808: f9000325     	str	x5, [x25]
 130f80c: f9013fe0     	str	x0, [sp, #0x278]
 130f810: f9000405     	str	x5, [x0, #0x8]
 130f814: d0001de0     	adrp	x0, 0x16cd000 <type:*+0x297180>
 130f818: 91290000     	add	x0, x0, #0xa40
 130f81c: 97c4374d     	bl	0x41d550 <runtime.newobject>
 130f820: d0000001     	adrp	x1, 0x1311000 <main.main.StripPrefix.func53>
 130f824: 913f8021     	add	x1, x1, #0xfe0
 130f828: f9000001     	str	x1, [x0]
 130f82c: b00143bb     	adrp	x27, 0x3b84000 <crypto/internal/fips140deps/cpu.S390XHasSHA3>
 130f830: b94a7361     	ldr	w1, [x27, #0xa70]
 130f834: 35000081     	cbnz	w1, 0x130f844 <main.main+0x3424>
 130f838: f9412fe4     	ldr	x4, [sp, #0x258]
 130f83c: f9413fe5     	ldr	x5, [sp, #0x278]
 130f840: 14000005     	b	0x130f854 <main.main+0x3434>
 130f844: 97c5e383     	bl	0x488650 <runtime.gcWriteBarrier2>
 130f848: f9412fe4     	ldr	x4, [sp, #0x258]
 130f84c: f9413fe5     	ldr	x5, [sp, #0x278]
 130f850: a9001724     	stp	x4, x5, [x25]
 130f854: a9009404     	stp	x4, x5, [x0, #0x8]
 130f858: d0002d41     	adrp	x1, 0x18b9000 <go:string.*+0x39508>
 130f85c: 9120f021     	add	x1, x1, #0x83c
 130f860: d28004a2     	mov	x2, #0x25               // =37
 130f864: aa0003e3     	mov	x3, x0
 130f868: f940b7e0     	ldr	x0, [sp, #0x168]
 130f86c: 97f2ca41     	bl	0xfc2170 <github.com/gorilla/mux.(*Router).HandleFunc>
 130f870: f90143e0     	str	x0, [sp, #0x280]
 130f874: f00012c0     	adrp	x0, 0x156a000 <type:*+0x134180>
 130f878: 91040000     	add	x0, x0, #0x100
 130f87c: 97c43735     	bl	0x41d550 <runtime.newobject>
 130f880: 90002b84     	adrp	x4, 0x187f000 <type:*+0x449180>
 130f884: 913b8484     	add	x4, x4, #0xee1
 130f888: b24007e5     	orr	x5, xzr, #0x3
 130f88c: a9001404     	stp	x4, x5, [x0]
 130f890: b0002b84     	adrp	x4, 0x1880000 <go:string.*+0x508>
 130f894: 91147484     	add	x4, x4, #0x51d
 130f898: b27e03e5     	orr	x5, xzr, #0x4
 130f89c: a9011404     	stp	x4, x5, [x0, #0x10]
 130f8a0: aa0003e1     	mov	x1, x0
 130f8a4: b27f03e2     	orr	x2, xzr, #0x2
 130f8a8: aa0203e3     	mov	x3, x2
 130f8ac: f94143e0     	ldr	x0, [sp, #0x280]
 130f8b0: 97f2de10     	bl	0xfc70f0 <github.com/gorilla/mux.(*Route).Methods>
 130f8b4: 90001a80     	adrp	x0, 0x165f000 <type:*+0x229180>
 130f8b8: 91028000     	add	x0, x0, #0xa0
 130f8bc: 97c43725     	bl	0x41d550 <runtime.newobject>
 130f8c0: b0000044     	adrp	x4, 0x1318000 <github.com/coroot/coroot/api.(*Api).AlertingRule-fm+0x40>
 130f8c4: 911e8084     	add	x4, x4, #0x7a0
 130f8c8: f9000004     	str	x4, [x0]
 130f8cc: f9412fe4     	ldr	x4, [sp, #0x258]
 130f8d0: f9400485     	ldr	x5, [x4, #0x8]
 130f8d4: b00143bb     	adrp	x27, 0x3b84000 <crypto/internal/fips140deps/cpu.S390XHasSHA3>
 130f8d8: b94a7366     	ldr	w6, [x27, #0xa70]
 130f8dc: 34000066     	cbz	w6, 0x130f8e8 <main.main+0x34c8>
 130f8e0: 97c5e358     	bl	0x488640 <runtime.gcWriteBarrier1>
 130f8e4: f9000325     	str	x5, [x25]
 130f8e8: f9013fe0     	str	x0, [sp, #0x278]
 130f8ec: f9000405     	str	x5, [x0, #0x8]
 130f8f0: d0001de0     	adrp	x0, 0x16cd000 <type:*+0x297180>
 130f8f4: 91290000     	add	x0, x0, #0xa40
 130f8f8: 97c43716     	bl	0x41d550 <runtime.newobject>
 130f8fc: d0000001     	adrp	x1, 0x1311000 <main.main.StripPrefix.func53>
 130f900: 91384021     	add	x1, x1, #0xe10
 130f904: f9000001     	str	x1, [x0]
 130f908: b00143bb     	adrp	x27, 0x3b84000 <crypto/internal/fips140deps/cpu.S390XHasSHA3>
 130f90c: b94a7361     	ldr	w1, [x27, #0xa70]
 130f910: 35000081     	cbnz	w1, 0x130f920 <main.main+0x3500>
 130f914: f9412fe4     	ldr	x4, [sp, #0x258]
 130f918: f9413fe5     	ldr	x5, [sp, #0x278]
 130f91c: 14000005     	b	0x130f930 <main.main+0x3510>
 130f920: 97c5e34c     	bl	0x488650 <runtime.gcWriteBarrier2>
 130f924: f9412fe4     	ldr	x4, [sp, #0x258]
 130f928: f9413fe5     	ldr	x5, [sp, #0x278]
 130f92c: a9001724     	stp	x4, x5, [x25]
 130f930: a9009404     	stp	x4, x5, [x0, #0x8]
 130f934: 90002d61     	adrp	x1, 0x18bb000 <go:string.*+0x3b508>
 130f938: 911af421     	add	x1, x1, #0x6bd
 130f93c: d28004c2     	mov	x2, #0x26               // =38
 130f940: aa0003e3     	mov	x3, x0
 130f944: f940b7e0     	ldr	x0, [sp, #0x168]
 130f948: 97f2ca0a     	bl	0xfc2170 <github.com/gorilla/mux.(*Router).HandleFunc>
 130f94c: f90143e0     	str	x0, [sp, #0x280]
 130f950: f00012c0     	adrp	x0, 0x156a000 <type:*+0x134180>
 130f954: 91010000     	add	x0, x0, #0x40
 130f958: 97c436fe     	bl	0x41d550 <runtime.newobject>
 130f95c: b0002b84     	adrp	x4, 0x1880000 <go:string.*+0x508>
 130f960: 91147484     	add	x4, x4, #0x51d
 130f964: b27e03e5     	orr	x5, xzr, #0x4
 130f968: a9001404     	stp	x4, x5, [x0]
 130f96c: aa0003e1     	mov	x1, x0
 130f970: b24003e2     	orr	x2, xzr, #0x1
 130f974: aa0203e3     	mov	x3, x2
 130f978: f94143e0     	ldr	x0, [sp, #0x280]
 130f97c: 97f2dddd     	bl	0xfc70f0 <github.com/gorilla/mux.(*Route).Methods>
 130f980: 90001a80     	adrp	x0, 0x165f000 <type:*+0x229180>
 130f984: 91028000     	add	x0, x0, #0xa0
 130f988: 97c436f2     	bl	0x41d550 <runtime.newobject>
 130f98c: b0000044     	adrp	x4, 0x1318000 <github.com/coroot/coroot/api.(*Api).AlertingRule-fm+0x40>
 130f990: 9120c084     	add	x4, x4, #0x830
 130f994: f9000004     	str	x4, [x0]
 130f998: f9412fe4     	ldr	x4, [sp, #0x258]
 130f99c: f9400485     	ldr	x5, [x4, #0x8]
 130f9a0: b00143bb     	adrp	x27, 0x3b84000 <crypto/internal/fips140deps/cpu.S390XHasSHA3>
 130f9a4: b94a7366     	ldr	w6, [x27, #0xa70]
 130f9a8: 34000066     	cbz	w6, 0x130f9b4 <main.main+0x3594>
 130f9ac: 97c5e325     	bl	0x488640 <runtime.gcWriteBarrier1>
 130f9b0: f9000325     	str	x5, [x25]
 130f9b4: f9013fe0     	str	x0, [sp, #0x278]
 130f9b8: f9000405     	str	x5, [x0, #0x8]
 130f9bc: d0001de0     	adrp	x0, 0x16cd000 <type:*+0x297180>
 130f9c0: 91290000     	add	x0, x0, #0xa40
 130f9c4: 97c436e3     	bl	0x41d550 <runtime.newobject>
 130f9c8: d0000001     	adrp	x1, 0x1311000 <main.main.StripPrefix.func53>
 130f9cc: 91310021     	add	x1, x1, #0xc40
 130f9d0: f9000001     	str	x1, [x0]
 130f9d4: b00143bb     	adrp	x27, 0x3b84000 <crypto/internal/fips140deps/cpu.S390XHasSHA3>
 130f9d8: b94a7361     	ldr	w1, [x27, #0xa70]
 130f9dc: 35000081     	cbnz	w1, 0x130f9ec <main.main+0x35cc>
 130f9e0: f9412fe4     	ldr	x4, [sp, #0x258]
 130f9e4: f9413fe5     	ldr	x5, [sp, #0x278]
 130f9e8: 14000005     	b	0x130f9fc <main.main+0x35dc>
 130f9ec: 97c5e319     	bl	0x488650 <runtime.gcWriteBarrier2>
 130f9f0: f9412fe4     	ldr	x4, [sp, #0x258]
 130f9f4: f9413fe5     	ldr	x5, [sp, #0x278]
 130f9f8: a9001724     	stp	x4, x5, [x25]
 130f9fc: a9009404     	stp	x4, x5, [x0, #0x8]
 130fa00: 90002d21     	adrp	x1, 0x18b3000 <go:string.*+0x33508>
 130fa04: 91224821     	add	x1, x1, #0x892
 130fa08: d2800442     	mov	x2, #0x22               // =34
 130fa0c: aa0003e3     	mov	x3, x0
 130fa10: f940b7e0     	ldr	x0, [sp, #0x168]
 130fa14: 97f2c9d7     	bl	0xfc2170 <github.com/gorilla/mux.(*Router).HandleFunc>
 130fa18: f90143e0     	str	x0, [sp, #0x280]
 130fa1c: f00012c0     	adrp	x0, 0x156a000 <type:*+0x134180>
 130fa20: 91010000     	add	x0, x0, #0x40
 130fa24: 97c436cb     	bl	0x41d550 <runtime.newobject>
 130fa28: 90002b84     	adrp	x4, 0x187f000 <type:*+0x449180>
 130fa2c: 913b8484     	add	x4, x4, #0xee1
 130fa30: b24007e5     	orr	x5, xzr, #0x3
 130fa34: a9001404     	stp	x4, x5, [x0]
 130fa38: aa0003e1     	mov	x1, x0
 130fa3c: b24003e2     	orr	x2, xzr, #0x1
 130fa40: aa0203e3     	mov	x3, x2
 130fa44: f94143e0     	ldr	x0, [sp, #0x280]
 130fa48: 97f2ddaa     	bl	0xfc70f0 <github.com/gorilla/mux.(*Route).Methods>
 130fa4c: f940b7e0     	ldr	x0, [sp, #0x168]
 130fa50: d0002da1     	adrp	x1, 0x18c5000 <go:string.*+0x45508>
 130fa54: 910d5c21     	add	x1, x1, #0x357
 130fa58: d2800582     	mov	x2, #0x2c               // =44
 130fa5c: 97f2ccf5     	bl	0xfc2e30 <github.com/gorilla/mux.(*Router).PathPrefix>
 130fa60: f90083e0     	str	x0, [sp, #0x100]
 130fa64: 90001a80     	adrp	x0, 0x165f000 <type:*+0x229180>
 130fa68: 91028000     	add	x0, x0, #0xa0
 130fa6c: 97c436b9     	bl	0x41d550 <runtime.newobject>
 130fa70: b0000044     	adrp	x4, 0x1318000 <github.com/coroot/coroot/api.(*Api).AlertingRule-fm+0x40>
 130fa74: 91230084     	add	x4, x4, #0x8c0
 130fa78: f9000004     	str	x4, [x0]
 130fa7c: f9412fe4     	ldr	x4, [sp, #0x258]
 130fa80: f9400485     	ldr	x5, [x4, #0x8]
 130fa84: b00143bb     	adrp	x27, 0x3b84000 <crypto/internal/fips140deps/cpu.S390XHasSHA3>
 130fa88: b94a7366     	ldr	w6, [x27, #0xa70]
 130fa8c: 34000066     	cbz	w6, 0x130fa98 <main.main+0x3678>
 130fa90: 97c5e2ec     	bl	0x488640 <runtime.gcWriteBarrier1>
 130fa94: f9000325     	str	x5, [x25]
 130fa98: f9013fe0     	str	x0, [sp, #0x278]
 130fa9c: f9000405     	str	x5, [x0, #0x8]
 130faa0: d0001de0     	adrp	x0, 0x16cd000 <type:*+0x297180>
 130faa4: 91290000     	add	x0, x0, #0xa40
 130faa8: 97c436aa     	bl	0x41d550 <runtime.newobject>
 130faac: d0000001     	adrp	x1, 0x1311000 <main.main.StripPrefix.func53>
 130fab0: 9129c021     	add	x1, x1, #0xa70
 130fab4: f9000001     	str	x1, [x0]
 130fab8: b00143bb     	adrp	x27, 0x3b84000 <crypto/internal/fips140deps/cpu.S390XHasSHA3>
 130fabc: b94a7361     	ldr	w1, [x27, #0xa70]
 130fac0: 35000081     	cbnz	w1, 0x130fad0 <main.main+0x36b0>
 130fac4: f9412fe1     	ldr	x1, [sp, #0x258]
 130fac8: f9413fe2     	ldr	x2, [sp, #0x278]
 130facc: 14000005     	b	0x130fae0 <main.main+0x36c0>
 130fad0: 97c5e2e0     	bl	0x488650 <runtime.gcWriteBarrier2>
 130fad4: f9412fe1     	ldr	x1, [sp, #0x258]
 130fad8: f9413fe2     	ldr	x2, [sp, #0x278]
 130fadc: a9000b21     	stp	x1, x2, [x25]
 130fae0: a9008801     	stp	x1, x2, [x0, #0x8]
 130fae4: d503201f     	nop
 130fae8: f94083e2     	ldr	x2, [sp, #0x100]
 130faec: f9401443     	ldr	x3, [x2, #0x28]
 130faf0: b5000163     	cbnz	x3, 0x130fb1c <main.main+0x36fc>
 130faf4: b000d723     	adrp	x3, 0x2df4000 <github.com/openai/openai-go/v3/packages/param..dict.MarshalObject[github.com/openai/openai-go/v3/responses.ResponseInputItemMcpApprovalRequestParam]>
 130faf8: 9136e063     	add	x3, x3, #0xdb8
 130fafc: f9000043     	str	x3, [x2]
 130fb00: b00143bb     	adrp	x27, 0x3b84000 <crypto/internal/fips140deps/cpu.S390XHasSHA3>
 130fb04: b94a7364     	ldr	w4, [x27, #0xa70]
 130fb08: 34000084     	cbz	w4, 0x130fb18 <main.main+0x36f8>
 130fb0c: f9400444     	ldr	x4, [x2, #0x8]
 130fb10: 97c5e2d0     	bl	0x488650 <runtime.gcWriteBarrier2>
 130fb14: a9001320     	stp	x0, x4, [x25]
 130fb18: f9000440     	str	x0, [x2, #0x8]
 130fb1c: 90001a80     	adrp	x0, 0x165f000 <type:*+0x229180>
 130fb20: 91028000     	add	x0, x0, #0xa0
 130fb24: 97c4368b     	bl	0x41d550 <runtime.newobject>
 130fb28: b0000041     	adrp	x1, 0x1318000 <github.com/coroot/coroot/api.(*Api).AlertingRule-fm+0x40>
 130fb2c: 91254021     	add	x1, x1, #0x950
 130fb30: f9000001     	str	x1, [x0]
 130fb34: f9412fe1     	ldr	x1, [sp, #0x258]
 130fb38: f9400422     	ldr	x2, [x1, #0x8]
 130fb3c: b00143bb     	adrp	x27, 0x3b84000 <crypto/internal/fips140deps/cpu.S390XHasSHA3>
 130fb40: b94a7363     	ldr	w3, [x27, #0xa70]
 130fb44: 34000063     	cbz	w3, 0x130fb50 <main.main+0x3730>
 130fb48: 97c5e2be     	bl	0x488640 <runtime.gcWriteBarrier1>
 130fb4c: f9000322     	str	x2, [x25]
 130fb50: f9000402     	str	x2, [x0, #0x8]
 130fb54: d0002d41     	adrp	x1, 0x18b9000 <go:string.*+0x39508>
 130fb58: 91218421     	add	x1, x1, #0x861
 130fb5c: d28004a2     	mov	x2, #0x25               // =37
 130fb60: aa0003e3     	mov	x3, x0
 130fb64: f940b7e0     	ldr	x0, [sp, #0x168]
 130fb68: 97f2c982     	bl	0xfc2170 <github.com/gorilla/mux.(*Router).HandleFunc>
 130fb6c: f90143e0     	str	x0, [sp, #0x280]
 130fb70: f00012c0     	adrp	x0, 0x156a000 <type:*+0x134180>
 130fb74: 91010000     	add	x0, x0, #0x40
 130fb78: 97c43676     	bl	0x41d550 <runtime.newobject>
 130fb7c: 90002b84     	adrp	x4, 0x187f000 <type:*+0x449180>
 130fb80: 913b8484     	add	x4, x4, #0xee1
 130fb84: b24007e5     	orr	x5, xzr, #0x3
 130fb88: a9001404     	stp	x4, x5, [x0]
 130fb8c: aa0003e1     	mov	x1, x0
 130fb90: b24003e2     	orr	x2, xzr, #0x1
 130fb94: aa0203e3     	mov	x3, x2
 130fb98: f94143e0     	ldr	x0, [sp, #0x280]
 130fb9c: 97f2dd55     	bl	0xfc70f0 <github.com/gorilla/mux.(*Route).Methods>
 130fba0: 90001a80     	adrp	x0, 0x165f000 <type:*+0x229180>
 130fba4: 91028000     	add	x0, x0, #0xa0
 130fba8: 97c4366a     	bl	0x41d550 <runtime.newobject>
 130fbac: b0000044     	adrp	x4, 0x1318000 <github.com/coroot/coroot/api.(*Api).AlertingRule-fm+0x40>
 130fbb0: 91278084     	add	x4, x4, #0x9e0
 130fbb4: f9000004     	str	x4, [x0]
 130fbb8: f9412fe4     	ldr	x4, [sp, #0x258]
 130fbbc: f9400485     	ldr	x5, [x4, #0x8]
 130fbc0: b00143bb     	adrp	x27, 0x3b84000 <crypto/internal/fips140deps/cpu.S390XHasSHA3>
 130fbc4: b94a7366     	ldr	w6, [x27, #0xa70]
 130fbc8: 34000066     	cbz	w6, 0x130fbd4 <main.main+0x37b4>
 130fbcc: 97c5e29d     	bl	0x488640 <runtime.gcWriteBarrier1>
 130fbd0: f9000325     	str	x5, [x25]
 130fbd4: f9000405     	str	x5, [x0, #0x8]
 130fbd8: d0002d61     	adrp	x1, 0x18bd000 <go:string.*+0x3d508>
 130fbdc: 91054021     	add	x1, x1, #0x150
 130fbe0: d28004e2     	mov	x2, #0x27               // =39
 130fbe4: aa0003e3     	mov	x3, x0
 130fbe8: f940b7e0     	ldr	x0, [sp, #0x168]
 130fbec: 97f2c961     	bl	0xfc2170 <github.com/gorilla/mux.(*Router).HandleFunc>
 130fbf0: f90143e0     	str	x0, [sp, #0x280]
 130fbf4: f00012c0     	adrp	x0, 0x156a000 <type:*+0x134180>
 130fbf8: 91010000     	add	x0, x0, #0x40
 130fbfc: 97c43655     	bl	0x41d550 <runtime.newobject>
 130fc00: 90002b84     	adrp	x4, 0x187f000 <type:*+0x449180>
 130fc04: 913b8484     	add	x4, x4, #0xee1
 130fc08: b24007e5     	orr	x5, xzr, #0x3
 130fc0c: a9001404     	stp	x4, x5, [x0]
 130fc10: aa0003e1     	mov	x1, x0
 130fc14: b24003e2     	orr	x2, xzr, #0x1
 130fc18: aa0203e3     	mov	x3, x2
 130fc1c: f94143e0     	ldr	x0, [sp, #0x280]
 130fc20: 97f2dd34     	bl	0xfc70f0 <github.com/gorilla/mux.(*Route).Methods>
 130fc24: 90001a80     	adrp	x0, 0x165f000 <type:*+0x229180>
 130fc28: 91028000     	add	x0, x0, #0xa0
 130fc2c: 97c43649     	bl	0x41d550 <runtime.newobject>
 130fc30: b0000044     	adrp	x4, 0x1318000 <github.com/coroot/coroot/api.(*Api).AlertingRule-fm+0x40>
 130fc34: 9129c084     	add	x4, x4, #0xa70
 130fc38: f9000004     	str	x4, [x0]
 130fc3c: f9412fe4     	ldr	x4, [sp, #0x258]
 130fc40: f9400485     	ldr	x5, [x4, #0x8]
 130fc44: b00143bb     	adrp	x27, 0x3b84000 <crypto/internal/fips140deps/cpu.S390XHasSHA3>
 130fc48: b94a7366     	ldr	w6, [x27, #0xa70]
 130fc4c: 34000066     	cbz	w6, 0x130fc58 <main.main+0x3838>
 130fc50: 97c5e27c     	bl	0x488640 <runtime.gcWriteBarrier1>
 130fc54: f9000325     	str	x5, [x25]
 130fc58: f9000405     	str	x5, [x0, #0x8]
 130fc5c: 90002c01     	adrp	x1, 0x188f000 <go:string.*+0xf508>
 130fc60: 91219821     	add	x1, x1, #0x866
 130fc64: b2400fe2     	orr	x2, xzr, #0xf
 130fc68: aa0003e3     	mov	x3, x0
 130fc6c: f940b7e0     	ldr	x0, [sp, #0x168]
 130fc70: 97f2c940     	bl	0xfc2170 <github.com/gorilla/mux.(*Router).HandleFunc>
 130fc74: f90143e0     	str	x0, [sp, #0x280]
 130fc78: f00012c0     	adrp	x0, 0x156a000 <type:*+0x134180>
 130fc7c: 91010000     	add	x0, x0, #0x40
 130fc80: 97c43634     	bl	0x41d550 <runtime.newobject>
 130fc84: b0002b84     	adrp	x4, 0x1880000 <go:string.*+0x508>
 130fc88: 91147484     	add	x4, x4, #0x51d
 130fc8c: b27e03e5     	orr	x5, xzr, #0x4
 130fc90: a9001404     	stp	x4, x5, [x0]
 130fc94: aa0003e1     	mov	x1, x0
 130fc98: b24003e2     	orr	x2, xzr, #0x1
 130fc9c: aa0203e3     	mov	x3, x2
 130fca0: f94143e0     	ldr	x0, [sp, #0x280]
 130fca4: 97f2dd13     	bl	0xfc70f0 <github.com/gorilla/mux.(*Route).Methods>
 130fca8: 90001a80     	adrp	x0, 0x165f000 <type:*+0x229180>
 130fcac: 91028000     	add	x0, x0, #0xa0
 130fcb0: 97c43628     	bl	0x41d550 <runtime.newobject>
 130fcb4: b0000044     	adrp	x4, 0x1318000 <github.com/coroot/coroot/api.(*Api).AlertingRule-fm+0x40>
 130fcb8: 912c0084     	add	x4, x4, #0xb00
 130fcbc: f9000004     	str	x4, [x0]
 130fcc0: f9412fe4     	ldr	x4, [sp, #0x258]
 130fcc4: f9400485     	ldr	x5, [x4, #0x8]
 130fcc8: b00143bb     	adrp	x27, 0x3b84000 <crypto/internal/fips140deps/cpu.S390XHasSHA3>
 130fccc: b94a7366     	ldr	w6, [x27, #0xa70]
 130fcd0: 34000066     	cbz	w6, 0x130fcdc <main.main+0x38bc>
 130fcd4: 97c5e25b     	bl	0x488640 <runtime.gcWriteBarrier1>
 130fcd8: f9000325     	str	x5, [x25]
 130fcdc: f9000405     	str	x5, [x0, #0x8]
 130fce0: d0002c01     	adrp	x1, 0x1891000 <go:string.*+0x11508>
 130fce4: 91004821     	add	x1, x1, #0x12
 130fce8: b27c03e2     	orr	x2, xzr, #0x10
 130fcec: aa0003e3     	mov	x3, x0
 130fcf0: f940b7e0     	ldr	x0, [sp, #0x168]
 130fcf4: 97f2c91f     	bl	0xfc2170 <github.com/gorilla/mux.(*Router).HandleFunc>
 130fcf8: f90143e0     	str	x0, [sp, #0x280]
 130fcfc: f00012c0     	adrp	x0, 0x156a000 <type:*+0x134180>
 130fd00: 91040000     	add	x0, x0, #0x100
 130fd04: 97c43613     	bl	0x41d550 <runtime.newobject>
 130fd08: 90002b84     	adrp	x4, 0x187f000 <type:*+0x449180>
 130fd0c: 913b8484     	add	x4, x4, #0xee1
 130fd10: b24007e5     	orr	x5, xzr, #0x3
 130fd14: a9001404     	stp	x4, x5, [x0]
 130fd18: b0002b84     	adrp	x4, 0x1880000 <go:string.*+0x508>
 130fd1c: 91147484     	add	x4, x4, #0x51d
 130fd20: b27e03e5     	orr	x5, xzr, #0x4
 130fd24: a9011404     	stp	x4, x5, [x0, #0x10]
 130fd28: aa0003e1     	mov	x1, x0
 130fd2c: b27f03e2     	orr	x2, xzr, #0x2
 130fd30: aa0203e3     	mov	x3, x2
 130fd34: f94143e0     	ldr	x0, [sp, #0x280]
 130fd38: 97f2dcee     	bl	0xfc70f0 <github.com/gorilla/mux.(*Route).Methods>
 130fd3c: 90001a80     	adrp	x0, 0x165f000 <type:*+0x229180>
 130fd40: 91028000     	add	x0, x0, #0xa0
 130fd44: 97c43603     	bl	0x41d550 <runtime.newobject>
 130fd48: b0000044     	adrp	x4, 0x1318000 <github.com/coroot/coroot/api.(*Api).AlertingRule-fm+0x40>
 130fd4c: 912e4084     	add	x4, x4, #0xb90
 130fd50: f9000004     	str	x4, [x0]
 130fd54: f9412fe4     	ldr	x4, [sp, #0x258]
 130fd58: f9400485     	ldr	x5, [x4, #0x8]
 130fd5c: b00143bb     	adrp	x27, 0x3b84000 <crypto/internal/fips140deps/cpu.S390XHasSHA3>
 130fd60: b94a7366     	ldr	w6, [x27, #0xa70]
 130fd64: 34000066     	cbz	w6, 0x130fd70 <main.main+0x3950>
 130fd68: 97c5e236     	bl	0x488640 <runtime.gcWriteBarrier1>
 130fd6c: f9000325     	str	x5, [x25]
 130fd70: f9000405     	str	x5, [x0, #0x8]
 130fd74: 90002be1     	adrp	x1, 0x188b000 <go:string.*+0xb508>
 130fd78: 910c7021     	add	x1, x1, #0x31c
 130fd7c: b27e07e2     	orr	x2, xzr, #0xc
 130fd80: aa0003e3     	mov	x3, x0
 130fd84: f940b7e0     	ldr	x0, [sp, #0x168]
 130fd88: 97f2c8fa     	bl	0xfc2170 <github.com/gorilla/mux.(*Router).HandleFunc>
 130fd8c: f90143e0     	str	x0, [sp, #0x280]
 130fd90: f00012c0     	adrp	x0, 0x156a000 <type:*+0x134180>
 130fd94: 91010000     	add	x0, x0, #0x40
 130fd98: 97c435ee     	bl	0x41d550 <runtime.newobject>
 130fd9c: b0002b84     	adrp	x4, 0x1880000 <go:string.*+0x508>
 130fda0: 91147484     	add	x4, x4, #0x51d
 130fda4: b27e03e5     	orr	x5, xzr, #0x4
 130fda8: a9001404     	stp	x4, x5, [x0]
 130fdac: aa0003e1     	mov	x1, x0
 130fdb0: b24003e2     	orr	x2, xzr, #0x1
 130fdb4: aa0203e3     	mov	x3, x2
 130fdb8: f94143e0     	ldr	x0, [sp, #0x280]
 130fdbc: 97f2dccd     	bl	0xfc70f0 <github.com/gorilla/mux.(*Route).Methods>
 130fdc0: 90001a80     	adrp	x0, 0x165f000 <type:*+0x229180>
 130fdc4: 91028000     	add	x0, x0, #0xa0
 130fdc8: 97c435e2     	bl	0x41d550 <runtime.newobject>
 130fdcc: b0000044     	adrp	x4, 0x1318000 <github.com/coroot/coroot/api.(*Api).AlertingRule-fm+0x40>
 130fdd0: 91308084     	add	x4, x4, #0xc20
 130fdd4: f9000004     	str	x4, [x0]
 130fdd8: f9412fe4     	ldr	x4, [sp, #0x258]
 130fddc: f9400485     	ldr	x5, [x4, #0x8]
 130fde0: b00143bb     	adrp	x27, 0x3b84000 <crypto/internal/fips140deps/cpu.S390XHasSHA3>
 130fde4: b94a7366     	ldr	w6, [x27, #0xa70]
 130fde8: 34000066     	cbz	w6, 0x130fdf4 <main.main+0x39d4>
 130fdec: 97c5e215     	bl	0x488640 <runtime.gcWriteBarrier1>
 130fdf0: f9000325     	str	x5, [x25]
 130fdf4: f9000405     	str	x5, [x0, #0x8]
 130fdf8: b0002be1     	adrp	x1, 0x188c000 <go:string.*+0xc508>
 130fdfc: 91255c21     	add	x1, x1, #0x957
 130fe00: d28001a2     	mov	x2, #0xd                // =13
 130fe04: aa0003e3     	mov	x3, x0
 130fe08: f940b7e0     	ldr	x0, [sp, #0x168]
 130fe0c: 97f2c8d9     	bl	0xfc2170 <github.com/gorilla/mux.(*Router).HandleFunc>
 130fe10: f90143e0     	str	x0, [sp, #0x280]
 130fe14: f00012c0     	adrp	x0, 0x156a000 <type:*+0x134180>
 130fe18: 91010000     	add	x0, x0, #0x40
 130fe1c: 97c435cd     	bl	0x41d550 <runtime.newobject>
 130fe20: b0002b84     	adrp	x4, 0x1880000 <go:string.*+0x508>
 130fe24: 91147484     	add	x4, x4, #0x51d
 130fe28: b27e03e5     	orr	x5, xzr, #0x4
 130fe2c: a9001404     	stp	x4, x5, [x0]
 130fe30: aa0003e1     	mov	x1, x0
 130fe34: b24003e2     	orr	x2, xzr, #0x1
 130fe38: aa0203e3     	mov	x3, x2
 130fe3c: f94143e0     	ldr	x0, [sp, #0x280]
 130fe40: 97f2dcac     	bl	0xfc70f0 <github.com/gorilla/mux.(*Route).Methods>
 130fe44: f9412fe4     	ldr	x4, [sp, #0x258]
 130fe48: f9400480     	ldr	x0, [x4, #0x8]
 130fe4c: f0002fa1     	adrp	x1, 0x1906000 <go:string.*+0x86508>
 130fe50: 91023c21     	add	x1, x1, #0x8f
 130fe54: d2824122     	mov	x2, #0x1209             // =4617
 130fe58: 97f4ea9a     	bl	0x104a8c0 <github.com/coroot/coroot/api.(*Api).SetupMCP>
 130fe5c: f900cbe0     	str	x0, [sp, #0x190]
 130fe60: aa0003e1     	mov	x1, x0
 130fe64: f9412fe0     	ldr	x0, [sp, #0x258]
 130fe68: 97ffd10e     	bl	0x13042a0 <github.com/coroot/enterprise/api.(*Api).RegisterMCPEnterpriseTools>
 130fe6c: f940b7e0     	ldr	x0, [sp, #0x168]
 130fe70: b0002b81     	adrp	x1, 0x1880000 <go:string.*+0x508>
 130fe74: 91148421     	add	x1, x1, #0x521
 130fe78: b27e03e2     	orr	x2, xzr, #0x4
 130fe7c: 97f2cbed     	bl	0xfc2e30 <github.com/gorilla/mux.(*Router).PathPrefix>
 130fe80: f900b3e0     	str	x0, [sp, #0x160]
 130fe84: f940cbe0     	ldr	x0, [sp, #0x190]
 130fe88: 97f4eb02     	bl	0x104aa90 <github.com/coroot/coroot/api.(*MCPHandler).HTTPHandler>
 130fe8c: f940b3e4     	ldr	x4, [sp, #0x160]
 130fe90: f9401485     	ldr	x5, [x4, #0x28]
 130fe94: b5000125     	cbnz	x5, 0x130feb8 <main.main+0x3a98>
 130fe98: f9000080     	str	x0, [x4]
 130fe9c: b00143bb     	adrp	x27, 0x3b84000 <crypto/internal/fips140deps/cpu.S390XHasSHA3>
 130fea0: b94a7362     	ldr	w2, [x27, #0xa70]
 130fea4: 34000082     	cbz	w2, 0x130feb4 <main.main+0x3a94>
 130fea8: f9400482     	ldr	x2, [x4, #0x8]
 130feac: 97c5e1e9     	bl	0x488650 <runtime.gcWriteBarrier2>
 130feb0: a9000b21     	stp	x1, x2, [x25]
 130feb4: f9000481     	str	x1, [x4, #0x8]
 130feb8: f9412fe1     	ldr	x1, [sp, #0x258]
 130febc: f9400421     	ldr	x1, [x1, #0x8]
 130fec0: f9011fe1     	str	x1, [sp, #0x238]
 130fec4: 90001a80     	adrp	x0, 0x165f000 <type:*+0x229180>
 130fec8: 91028000     	add	x0, x0, #0xa0
 130fecc: 97c435a1     	bl	0x41d550 <runtime.newobject>
 130fed0: b0000041     	adrp	x1, 0x1318000 <github.com/coroot/coroot/api.(*Api).AlertingRule-fm+0x40>
 130fed4: 91328021     	add	x1, x1, #0xca0
 130fed8: f9000001     	str	x1, [x0]
 130fedc: f9412fe1     	ldr	x1, [sp, #0x258]
 130fee0: f9400422     	ldr	x2, [x1, #0x8]
 130fee4: b00143bb     	adrp	x27, 0x3b84000 <crypto/internal/fips140deps/cpu.S390XHasSHA3>
 130fee8: b94a7363     	ldr	w3, [x27, #0xa70]
 130feec: 34000063     	cbz	w3, 0x130fef8 <main.main+0x3ad8>
 130fef0: 97c5e1d4     	bl	0x488640 <runtime.gcWriteBarrier1>
 130fef4: f9000322     	str	x2, [x25]
 130fef8: f9013fe0     	str	x0, [sp, #0x278]
 130fefc: f9000402     	str	x2, [x0, #0x8]
 130ff00: d0001de0     	adrp	x0, 0x16cd000 <type:*+0x297180>
 130ff04: 91218000     	add	x0, x0, #0x860
 130ff08: 97c43592     	bl	0x41d550 <runtime.newobject>
 130ff0c: d0000001     	adrp	x1, 0x1311000 <main.main.StripPrefix.func53>
 130ff10: 9123c021     	add	x1, x1, #0x8f0
 130ff14: f9000001     	str	x1, [x0]
 130ff18: b00143bb     	adrp	x27, 0x3b84000 <crypto/internal/fips140deps/cpu.S390XHasSHA3>
 130ff1c: b94a7361     	ldr	w1, [x27, #0xa70]
 130ff20: 35000081     	cbnz	w1, 0x130ff30 <main.main+0x3b10>
 130ff24: f9411fe4     	ldr	x4, [sp, #0x238]
 130ff28: f9413fe5     	ldr	x5, [sp, #0x278]
 130ff2c: 14000005     	b	0x130ff40 <main.main+0x3b20>
 130ff30: 97c5e1c8     	bl	0x488650 <runtime.gcWriteBarrier2>
 130ff34: f9411fe4     	ldr	x4, [sp, #0x238]
 130ff38: f9413fe5     	ldr	x5, [sp, #0x278]
 130ff3c: a9001724     	stp	x4, x5, [x25]
 130ff40: a9009404     	stp	x4, x5, [x0, #0x8]
 130ff44: f0002c21     	adrp	x1, 0x1896000 <go:string.*+0x16508>
 130ff48: 910e3c21     	add	x1, x1, #0x38f
 130ff4c: d2800262     	mov	x2, #0x13               // =19
 130ff50: aa0003e3     	mov	x3, x0
 130ff54: f940b7e0     	ldr	x0, [sp, #0x168]
 130ff58: 97f2c886     	bl	0xfc2170 <github.com/gorilla/mux.(*Router).HandleFunc>
 130ff5c: f9412fe4     	ldr	x4, [sp, #0x258]
 130ff60: f9400484     	ldr	x4, [x4, #0x8]
 130ff64: f9011be4     	str	x4, [sp, #0x230]
 130ff68: 90001a80     	adrp	x0, 0x165f000 <type:*+0x229180>
 130ff6c: 91028000     	add	x0, x0, #0xa0
 130ff70: 97c43578     	bl	0x41d550 <runtime.newobject>
 130ff74: b0000044     	adrp	x4, 0x1318000 <github.com/coroot/coroot/api.(*Api).AlertingRule-fm+0x40>
 130ff78: 9134c084     	add	x4, x4, #0xd30
 130ff7c: f9000004     	str	x4, [x0]
 130ff80: f9412fe4     	ldr	x4, [sp, #0x258]
 130ff84: f9400485     	ldr	x5, [x4, #0x8]
 130ff88: b00143bb     	adrp	x27, 0x3b84000 <crypto/internal/fips140deps/cpu.S390XHasSHA3>
 130ff8c: b94a7366     	ldr	w6, [x27, #0xa70]
 130ff90: 34000066     	cbz	w6, 0x130ff9c <main.main+0x3b7c>
 130ff94: 97c5e1ab     	bl	0x488640 <runtime.gcWriteBarrier1>
 130ff98: f9000325     	str	x5, [x25]
 130ff9c: f9013fe0     	str	x0, [sp, #0x278]
 130ffa0: f9000405     	str	x5, [x0, #0x8]
 130ffa4: d0001de0     	adrp	x0, 0x16cd000 <type:*+0x297180>
 130ffa8: 91218000     	add	x0, x0, #0x860
 130ffac: 97c43569     	bl	0x41d550 <runtime.newobject>
 130ffb0: d0000001     	adrp	x1, 0x1311000 <main.main.StripPrefix.func53>
 130ffb4: 911dc021     	add	x1, x1, #0x770
 130ffb8: f9000001     	str	x1, [x0]
 130ffbc: b00143bb     	adrp	x27, 0x3b84000 <crypto/internal/fips140deps/cpu.S390XHasSHA3>
 130ffc0: b94a7361     	ldr	w1, [x27, #0xa70]
 130ffc4: 35000081     	cbnz	w1, 0x130ffd4 <main.main+0x3bb4>
 130ffc8: f9411be4     	ldr	x4, [sp, #0x230]
 130ffcc: f9413fe5     	ldr	x5, [sp, #0x278]
 130ffd0: 14000005     	b	0x130ffe4 <main.main+0x3bc4>
 130ffd4: 97c5e19f     	bl	0x488650 <runtime.gcWriteBarrier2>
 130ffd8: f9411be4     	ldr	x4, [sp, #0x230]
 130ffdc: f9413fe5     	ldr	x5, [sp, #0x278]
 130ffe0: a9001724     	stp	x4, x5, [x25]
 130ffe4: a9009404     	stp	x4, x5, [x0, #0x8]
 130ffe8: f0002be1     	adrp	x1, 0x188e000 <go:string.*+0xe508>
 130ffec: 91023421     	add	x1, x1, #0x8d
 130fff0: b27f0be2     	orr	x2, xzr, #0xe
 130fff4: aa0003e3     	mov	x3, x0
 130fff8: f940b7e0     	ldr	x0, [sp, #0x168]
 130fffc: 97f2c85d     	bl	0xfc2170 <github.com/gorilla/mux.(*Router).HandleFunc>
 1310000: f9412fe4     	ldr	x4, [sp, #0x258]
 1310004: f9400484     	ldr	x4, [x4, #0x8]
 1310008: f90117e4     	str	x4, [sp, #0x228]
 131000c: f0001a60     	adrp	x0, 0x165f000 <type:*+0x229180>
 1310010: 91028000     	add	x0, x0, #0xa0
 1310014: 97c4354f     	bl	0x41d550 <runtime.newobject>
 1310018: 90000044     	adrp	x4, 0x1318000 <github.com/coroot/coroot/api.(*Api).AlertingRule-fm+0x40>
 131001c: 91370084     	add	x4, x4, #0xdc0
 1310020: f9000004     	str	x4, [x0]
 1310024: f9412fe4     	ldr	x4, [sp, #0x258]
 1310028: f9400485     	ldr	x5, [x4, #0x8]
 131002c: 900143bb     	adrp	x27, 0x3b84000 <crypto/internal/fips140deps/cpu.S390XHasSHA3>
 1310030: b94a7366     	ldr	w6, [x27, #0xa70]
 1310034: 34000066     	cbz	w6, 0x1310040 <main.main+0x3c20>
 1310038: 97c5e182     	bl	0x488640 <runtime.gcWriteBarrier1>
 131003c: f9000325     	str	x5, [x25]
 1310040: f9013fe0     	str	x0, [sp, #0x278]
 1310044: f9000405     	str	x5, [x0, #0x8]
 1310048: b0001de0     	adrp	x0, 0x16cd000 <type:*+0x297180>
 131004c: 91218000     	add	x0, x0, #0x860
 1310050: 97c43540     	bl	0x41d550 <runtime.newobject>
 1310054: b0000001     	adrp	x1, 0x1311000 <main.main.StripPrefix.func53>
 1310058: 9117c021     	add	x1, x1, #0x5f0
 131005c: f9000001     	str	x1, [x0]
 1310060: 900143bb     	adrp	x27, 0x3b84000 <crypto/internal/fips140deps/cpu.S390XHasSHA3>
 1310064: b94a7361     	ldr	w1, [x27, #0xa70]
 1310068: 35000081     	cbnz	w1, 0x1310078 <main.main+0x3c58>
 131006c: f94117e4     	ldr	x4, [sp, #0x228]
 1310070: f9413fe5     	ldr	x5, [sp, #0x278]
 1310074: 14000005     	b	0x1310088 <main.main+0x3c68>
 1310078: 97c5e176     	bl	0x488650 <runtime.gcWriteBarrier2>
 131007c: f94117e4     	ldr	x4, [sp, #0x228]
 1310080: f9413fe5     	ldr	x5, [sp, #0x278]
 1310084: a9001724     	stp	x4, x5, [x25]
 1310088: a9009404     	stp	x4, x5, [x0, #0x8]
 131008c: b0002c01     	adrp	x1, 0x1891000 <go:string.*+0x11508>
 1310090: 91008821     	add	x1, x1, #0x22
 1310094: b27c03e2     	orr	x2, xzr, #0x10
 1310098: aa0003e3     	mov	x3, x0
 131009c: f940b7e0     	ldr	x0, [sp, #0x168]
 13100a0: 97f2c834     	bl	0xfc2170 <github.com/gorilla/mux.(*Router).HandleFunc>
 13100a4: f9412fe4     	ldr	x4, [sp, #0x258]
 13100a8: f9400484     	ldr	x4, [x4, #0x8]
 13100ac: f90113e4     	str	x4, [sp, #0x220]
 13100b0: f0001a60     	adrp	x0, 0x165f000 <type:*+0x229180>
 13100b4: 91028000     	add	x0, x0, #0xa0
 13100b8: 97c43526     	bl	0x41d550 <runtime.newobject>
 13100bc: 90000044     	adrp	x4, 0x1318000 <github.com/coroot/coroot/api.(*Api).AlertingRule-fm+0x40>
 13100c0: 91394084     	add	x4, x4, #0xe50
 13100c4: f9000004     	str	x4, [x0]
 13100c8: f9412fe4     	ldr	x4, [sp, #0x258]
 13100cc: f9400485     	ldr	x5, [x4, #0x8]
 13100d0: 900143bb     	adrp	x27, 0x3b84000 <crypto/internal/fips140deps/cpu.S390XHasSHA3>
 13100d4: b94a7366     	ldr	w6, [x27, #0xa70]
 13100d8: 34000066     	cbz	w6, 0x13100e4 <main.main+0x3cc4>
 13100dc: 97c5e159     	bl	0x488640 <runtime.gcWriteBarrier1>
 13100e0: f9000325     	str	x5, [x25]
 13100e4: f9013fe0     	str	x0, [sp, #0x278]
 13100e8: f9000405     	str	x5, [x0, #0x8]
 13100ec: b0001de0     	adrp	x0, 0x16cd000 <type:*+0x297180>
 13100f0: 91218000     	add	x0, x0, #0x860
 13100f4: 97c43517     	bl	0x41d550 <runtime.newobject>
 13100f8: b0000001     	adrp	x1, 0x1311000 <main.main.StripPrefix.func53>
 13100fc: 9111c021     	add	x1, x1, #0x470
 1310100: f9000001     	str	x1, [x0]
 1310104: 900143bb     	adrp	x27, 0x3b84000 <crypto/internal/fips140deps/cpu.S390XHasSHA3>
 1310108: b94a7361     	ldr	w1, [x27, #0xa70]
 131010c: 35000081     	cbnz	w1, 0x131011c <main.main+0x3cfc>
 1310110: f94113e4     	ldr	x4, [sp, #0x220]
 1310114: f9413fe5     	ldr	x5, [sp, #0x278]
 1310118: 14000005     	b	0x131012c <main.main+0x3d0c>
 131011c: 97c5e14d     	bl	0x488650 <runtime.gcWriteBarrier2>
 1310120: f94113e4     	ldr	x4, [sp, #0x220]
 1310124: f9413fe5     	ldr	x5, [sp, #0x278]
 1310128: a9001724     	stp	x4, x5, [x25]
 131012c: a9009404     	stp	x4, x5, [x0, #0x8]
 1310130: d0002ce1     	adrp	x1, 0x18ae000 <go:string.*+0x2e508>
 1310134: 913cc821     	add	x1, x1, #0xf32
 1310138: b27b03e2     	orr	x2, xzr, #0x20
 131013c: aa0003e3     	mov	x3, x0
 1310140: f940b7e0     	ldr	x0, [sp, #0x168]
 1310144: 97f2c80b     	bl	0xfc2170 <github.com/gorilla/mux.(*Router).HandleFunc>
 1310148: f9412fe4     	ldr	x4, [sp, #0x258]
 131014c: f9400484     	ldr	x4, [x4, #0x8]
 1310150: f9010fe4     	str	x4, [sp, #0x218]
 1310154: f0001a60     	adrp	x0, 0x165f000 <type:*+0x229180>
 1310158: 91028000     	add	x0, x0, #0xa0
 131015c: 97c434fd     	bl	0x41d550 <runtime.newobject>
 1310160: 90000044     	adrp	x4, 0x1318000 <github.com/coroot/coroot/api.(*Api).AlertingRule-fm+0x40>
 1310164: 913b8084     	add	x4, x4, #0xee0
 1310168: f9000004     	str	x4, [x0]
 131016c: f9412fe4     	ldr	x4, [sp, #0x258]
 1310170: f9400485     	ldr	x5, [x4, #0x8]
 1310174: 900143bb     	adrp	x27, 0x3b84000 <crypto/internal/fips140deps/cpu.S390XHasSHA3>
 1310178: b94a7366     	ldr	w6, [x27, #0xa70]
 131017c: 34000066     	cbz	w6, 0x1310188 <main.main+0x3d68>
 1310180: 97c5e130     	bl	0x488640 <runtime.gcWriteBarrier1>
 1310184: f9000325     	str	x5, [x25]
 1310188: f9013fe0     	str	x0, [sp, #0x278]
 131018c: f9000405     	str	x5, [x0, #0x8]
 1310190: b0001de0     	adrp	x0, 0x16cd000 <type:*+0x297180>
 1310194: 91218000     	add	x0, x0, #0x860
 1310198: 97c434ee     	bl	0x41d550 <runtime.newobject>
 131019c: b0000001     	adrp	x1, 0x1311000 <main.main.StripPrefix.func53>
 13101a0: 910bc021     	add	x1, x1, #0x2f0
 13101a4: f9000001     	str	x1, [x0]
 13101a8: 900143bb     	adrp	x27, 0x3b84000 <crypto/internal/fips140deps/cpu.S390XHasSHA3>
 13101ac: b94a7361     	ldr	w1, [x27, #0xa70]
 13101b0: 35000081     	cbnz	w1, 0x13101c0 <main.main+0x3da0>
 13101b4: f9410fe4     	ldr	x4, [sp, #0x218]
 13101b8: f9413fe5     	ldr	x5, [sp, #0x278]
 13101bc: 14000005     	b	0x13101d0 <main.main+0x3db0>
 13101c0: 97c5e124     	bl	0x488650 <runtime.gcWriteBarrier2>
 13101c4: f9410fe4     	ldr	x4, [sp, #0x218]
 13101c8: f9413fe5     	ldr	x5, [sp, #0x278]
 13101cc: a9001724     	stp	x4, x5, [x25]
 13101d0: a9009404     	stp	x4, x5, [x0, #0x8]
 13101d4: f0002c41     	adrp	x1, 0x189b000 <go:string.*+0x1b508>
 13101d8: 91297421     	add	x1, x1, #0xa5d
 13101dc: d28002c2     	mov	x2, #0x16               // =22
 13101e0: aa0003e3     	mov	x3, x0
 13101e4: f940b7e0     	ldr	x0, [sp, #0x168]
 13101e8: 97f2c7e2     	bl	0xfc2170 <github.com/gorilla/mux.(*Router).HandleFunc>
 13101ec: f90143e0     	str	x0, [sp, #0x280]
 13101f0: d00012c0     	adrp	x0, 0x156a000 <type:*+0x134180>
 13101f4: 91010000     	add	x0, x0, #0x40
 13101f8: 97c434d6     	bl	0x41d550 <runtime.newobject>
 13101fc: f0002b64     	adrp	x4, 0x187f000 <type:*+0x449180>
 1310200: 913b8484     	add	x4, x4, #0xee1
 1310204: b24007e5     	orr	x5, xzr, #0x3
 1310208: a9001404     	stp	x4, x5, [x0]
 131020c: aa0003e1     	mov	x1, x0
 1310210: b24003e2     	orr	x2, xzr, #0x1
 1310214: aa0203e3     	mov	x3, x2
 1310218: f94143e0     	ldr	x0, [sp, #0x280]
 131021c: 97f2dbb5     	bl	0xfc70f0 <github.com/gorilla/mux.(*Route).Methods>
 1310220: f0001a60     	adrp	x0, 0x165f000 <type:*+0x229180>
 1310224: 91028000     	add	x0, x0, #0xa0
 1310228: 97c434ca     	bl	0x41d550 <runtime.newobject>
 131022c: 90000044     	adrp	x4, 0x1318000 <github.com/coroot/coroot/api.(*Api).AlertingRule-fm+0x40>
 1310230: 913dc084     	add	x4, x4, #0xf70
 1310234: f9000004     	str	x4, [x0]
 1310238: f9412fe4     	ldr	x4, [sp, #0x258]
 131023c: f9400484     	ldr	x4, [x4, #0x8]
 1310240: 900143bb     	adrp	x27, 0x3b84000 <crypto/internal/fips140deps/cpu.S390XHasSHA3>
 1310244: b94a7365     	ldr	w5, [x27, #0xa70]
 1310248: 34000065     	cbz	w5, 0x1310254 <main.main+0x3e34>
 131024c: 97c5e0fd     	bl	0x488640 <runtime.gcWriteBarrier1>
 1310250: f9000324     	str	x4, [x25]
 1310254: f9000404     	str	x4, [x0, #0x8]
 1310258: b0002c61     	adrp	x1, 0x189d000 <go:string.*+0x1d508>
 131025c: 91146021     	add	x1, x1, #0x518
 1310260: d28002e2     	mov	x2, #0x17               // =23
 1310264: aa0003e3     	mov	x3, x0
 1310268: f940b7e0     	ldr	x0, [sp, #0x168]
 131026c: 97f2c7c1     	bl	0xfc2170 <github.com/gorilla/mux.(*Router).HandleFunc>
 1310270: f90143e0     	str	x0, [sp, #0x280]
 1310274: d00012c0     	adrp	x0, 0x156a000 <type:*+0x134180>
 1310278: 91010000     	add	x0, x0, #0x40
 131027c: 97c434b5     	bl	0x41d550 <runtime.newobject>
 1310280: 90002ba4     	adrp	x4, 0x1884000 <go:string.*+0x4508>
 1310284: 91033084     	add	x4, x4, #0xcc
 1310288: b2400be5     	orr	x5, xzr, #0x7
 131028c: a9001404     	stp	x4, x5, [x0]
 1310290: aa0003e1     	mov	x1, x0
 1310294: b24003e2     	orr	x2, xzr, #0x1
 1310298: aa0203e3     	mov	x3, x2
 131029c: f94143e0     	ldr	x0, [sp, #0x280]
 13102a0: 97f2db94     	bl	0xfc70f0 <github.com/gorilla/mux.(*Route).Methods>
 13102a4: f0001a60     	adrp	x0, 0x165f000 <type:*+0x229180>
 13102a8: 910a8000     	add	x0, x0, #0x2a0
 13102ac: 97c434a9     	bl	0x41d550 <runtime.newobject>
 13102b0: b0000004     	adrp	x4, 0x1311000 <main.main.StripPrefix.func53>
 13102b4: 910a8084     	add	x4, x4, #0x2a0
 13102b8: f9000004     	str	x4, [x0]
 13102bc: 900143bb     	adrp	x27, 0x3b84000 <crypto/internal/fips140deps/cpu.S390XHasSHA3>
 13102c0: b94a7364     	ldr	w4, [x27, #0xa70]
 13102c4: 35000064     	cbnz	w4, 0x13102d0 <main.main+0x3eb0>
 13102c8: f9409fe4     	ldr	x4, [sp, #0x138]
 13102cc: 14000004     	b	0x13102dc <main.main+0x3ebc>
 13102d0: 97c5e0dc     	bl	0x488640 <runtime.gcWriteBarrier1>
 13102d4: f9409fe4     	ldr	x4, [sp, #0x138]
 13102d8: f9000324     	str	x4, [x25]
 13102dc: f9000404     	str	x4, [x0, #0x8]
 13102e0: d0002b81     	adrp	x1, 0x1882000 <go:string.*+0x2508>
 13102e4: 911fa421     	add	x1, x1, #0x7e9
 13102e8: b27f07e2     	orr	x2, xzr, #0x6
 13102ec: aa0003e3     	mov	x3, x0
 13102f0: f940b7e0     	ldr	x0, [sp, #0x168]
 13102f4: 97f2c79f     	bl	0xfc2170 <github.com/gorilla/mux.(*Router).HandleFunc>
 13102f8: f90143e0     	str	x0, [sp, #0x280]
 13102fc: d00012c0     	adrp	x0, 0x156a000 <type:*+0x134180>
 1310300: 91010000     	add	x0, x0, #0x40
 1310304: 97c43493     	bl	0x41d550 <runtime.newobject>
 1310308: 90002b84     	adrp	x4, 0x1880000 <go:string.*+0x508>
 131030c: 91147484     	add	x4, x4, #0x51d
 1310310: b27e03e5     	orr	x5, xzr, #0x4
 1310314: a9001404     	stp	x4, x5, [x0]
 1310318: aa0003e1     	mov	x1, x0
 131031c: b24003e2     	orr	x2, xzr, #0x1
 1310320: aa0203e3     	mov	x3, x2
 1310324: f94143e0     	ldr	x0, [sp, #0x280]
 1310328: 97f2db72     	bl	0xfc70f0 <github.com/gorilla/mux.(*Route).Methods>
 131032c: f0001a60     	adrp	x0, 0x165f000 <type:*+0x229180>
 1310330: 910a8000     	add	x0, x0, #0x2a0
 1310334: 97c43487     	bl	0x41d550 <runtime.newobject>
 1310338: b0000004     	adrp	x4, 0x1311000 <main.main.StripPrefix.func53>
 131033c: 91090084     	add	x4, x4, #0x240
 1310340: f9000004     	str	x4, [x0]
 1310344: 900143bb     	adrp	x27, 0x3b84000 <crypto/internal/fips140deps/cpu.S390XHasSHA3>
 1310348: b94a7364     	ldr	w4, [x27, #0xa70]
 131034c: 35000064     	cbnz	w4, 0x1310358 <main.main+0x3f38>
 1310350: f9409fe4     	ldr	x4, [sp, #0x138]
 1310354: 14000004     	b	0x1310364 <main.main+0x3f44>
 1310358: 97c5e0ba     	bl	0x488640 <runtime.gcWriteBarrier1>
 131035c: f9409fe4     	ldr	x4, [sp, #0x138]
 1310360: f9000324     	str	x4, [x25]
 1310364: f9000404     	str	x4, [x0, #0x8]
 1310368: d0002b81     	adrp	x1, 0x1882000 <go:string.*+0x2508>
 131036c: 911fa421     	add	x1, x1, #0x7e9
 1310370: b27f07e2     	orr	x2, xzr, #0x6
 1310374: aa0003e3     	mov	x3, x0
 1310378: f940b7e0     	ldr	x0, [sp, #0x168]
 131037c: 97f2c77d     	bl	0xfc2170 <github.com/gorilla/mux.(*Router).HandleFunc>
 1310380: f90143e0     	str	x0, [sp, #0x280]
 1310384: d00012c0     	adrp	x0, 0x156a000 <type:*+0x134180>
 1310388: 91010000     	add	x0, x0, #0x40
 131038c: 97c43471     	bl	0x41d550 <runtime.newobject>
 1310390: f0002b64     	adrp	x4, 0x187f000 <type:*+0x449180>
 1310394: 913b8484     	add	x4, x4, #0xee1
 1310398: b24007e5     	orr	x5, xzr, #0x3
 131039c: a9001404     	stp	x4, x5, [x0]
 13103a0: aa0003e1     	mov	x1, x0
 13103a4: b24003e2     	orr	x2, xzr, #0x1
 13103a8: aa0203e3     	mov	x3, x2
 13103ac: f94143e0     	ldr	x0, [sp, #0x280]
 13103b0: 97f2db50     	bl	0xfc70f0 <github.com/gorilla/mux.(*Route).Methods>
 13103b4: f94103e4     	ldr	x4, [sp, #0x200]
 13103b8: f9400085     	ldr	x5, [x4]
 13103bc: 3943b0a5     	ldrb	w5, [x5, #0xec]
 13103c0: 36000885     	tbz	w5, #0x0, 0x13104d0 <main.main+0x40b0>
 13103c4: f940b7e0     	ldr	x0, [sp, #0x168]
 13103c8: b0002ba1     	adrp	x1, 0x1885000 <go:string.*+0x5508>
 13103cc: 912a9821     	add	x1, x1, #0xaa6
 13103d0: b27d03e2     	orr	x2, xzr, #0x8
 13103d4: 97f2ca97     	bl	0xfc2e30 <github.com/gorilla/mux.(*Router).PathPrefix>
 13103d8: f900afe0     	str	x0, [sp, #0x158]
 13103dc: f0001940     	adrp	x0, 0x163b000 <type:*+0x205180>
 13103e0: 91320000     	add	x0, x0, #0xc80
 13103e4: 97c4345b     	bl	0x41d550 <runtime.newobject>
 13103e8: f9013be0     	str	x0, [sp, #0x270]
 13103ec: 9000d723     	adrp	x3, 0x2df4000 <github.com/openai/openai-go/v3/packages/param..dict.MarshalObject[github.com/openai/openai-go/v3/responses.ResponseInputItemMcpApprovalRequestParam]>
 13103f0: 91336063     	add	x3, x3, #0xcd8
 13103f4: b000d6c4     	adrp	x4, 0x2de9000 <$f64.5e50000000000000>
 13103f8: 9103a084     	add	x4, x4, #0xe8
 13103fc: a9001003     	stp	x3, x4, [x0]
 1310400: f94103e3     	ldr	x3, [sp, #0x200]
 1310404: f9400063     	ldr	x3, [x3]
 1310408: a9428861     	ldp	x1, x2, [x3, #0x28]
 131040c: aa1f03e0     	mov	x0, xzr
 1310410: 90002ba3     	adrp	x3, 0x1884000 <go:string.*+0x4508>
 1310414: 91034c63     	add	x3, x3, #0xd3
 1310418: b2400be4     	orr	x4, xzr, #0x7
 131041c: 97c55871     	bl	0x4665e0 <runtime.concatstring2>
 1310420: b50000a1     	cbnz	x1, 0x1310434 <main.main+0x4014>
 1310424: f9413be0     	ldr	x0, [sp, #0x270]
 1310428: 9000d721     	adrp	x1, 0x2df4000 <github.com/openai/openai-go/v3/packages/param..dict.MarshalObject[github.com/openai/openai-go/v3/responses.ResponseInputItemMcpApprovalRequestParam]>
 131042c: 91376021     	add	x1, x1, #0xdd8
 1310430: 1400001b     	b	0x131049c <main.main+0x407c>
 1310434: f90047e1     	str	x1, [sp, #0x88]
 1310438: f900c7e0     	str	x0, [sp, #0x188]
 131043c: b0001de0     	adrp	x0, 0x16cd000 <type:*+0x297180>
 1310440: 91308000     	add	x0, x0, #0xc20
 1310444: 97c43443     	bl	0x41d550 <runtime.newobject>
 1310448: b0000001     	adrp	x1, 0x1311000 <main.main.StripPrefix.func53>
 131044c: 91000021     	add	x1, x1, #0x0
 1310450: f9000001     	str	x1, [x0]
 1310454: f94047e1     	ldr	x1, [sp, #0x88]
 1310458: f9000801     	str	x1, [x0, #0x10]
 131045c: 900143bb     	adrp	x27, 0x3b84000 <crypto/internal/fips140deps/cpu.S390XHasSHA3>
 1310460: b94a7361     	ldr	w1, [x27, #0xa70]
 1310464: 35000081     	cbnz	w1, 0x1310474 <main.main+0x4054>
 1310468: f940c7e8     	ldr	x8, [sp, #0x188]
 131046c: f9413be9     	ldr	x9, [sp, #0x270]
 1310470: 14000005     	b	0x1310484 <main.main+0x4064>
 1310474: 97c5e077     	bl	0x488650 <runtime.gcWriteBarrier2>
 1310478: f940c7e8     	ldr	x8, [sp, #0x188]
 131047c: f9413be9     	ldr	x9, [sp, #0x270]
 1310480: a9002728     	stp	x8, x9, [x25]
 1310484: f9000408     	str	x8, [x0, #0x8]
 1310488: 9000d728     	adrp	x8, 0x2df4000 <github.com/openai/openai-go/v3/packages/param..dict.MarshalObject[github.com/openai/openai-go/v3/responses.ResponseInputItemMcpApprovalRequestParam]>
 131048c: 91376108     	add	x8, x8, #0xdd8
 1310490: a901a408     	stp	x8, x9, [x0, #0x18]
 1310494: 9000d721     	adrp	x1, 0x2df4000 <github.com/openai/openai-go/v3/packages/param..dict.MarshalObject[github.com/openai/openai-go/v3/responses.ResponseInputItemMcpApprovalRequestParam]>
 1310498: 9136e021     	add	x1, x1, #0xdb8
 131049c: f940afe8     	ldr	x8, [sp, #0x158]
 13104a0: f9401509     	ldr	x9, [x8, #0x28]
 13104a4: b5000129     	cbnz	x9, 0x13104c8 <main.main+0x40a8>
 13104a8: f9000101     	str	x1, [x8]
 13104ac: 900143bb     	adrp	x27, 0x3b84000 <crypto/internal/fips140deps/cpu.S390XHasSHA3>
 13104b0: b94a7369     	ldr	w9, [x27, #0xa70]
 13104b4: 34000089     	cbz	w9, 0x13104c4 <main.main+0x40a4>
 13104b8: f9400509     	ldr	x9, [x8, #0x8]
 13104bc: 97c5e065     	bl	0x488650 <runtime.gcWriteBarrier2>
 13104c0: a9002720     	stp	x0, x9, [x25]
 13104c4: f9000500     	str	x0, [x8, #0x8]
 13104c8: f94103e8     	ldr	x8, [sp, #0x200]
 13104cc: 14000068     	b	0x131066c <main.main+0x424c>
 13104d0: f940b7e0     	ldr	x0, [sp, #0x168]
 13104d4: b0002ba1     	adrp	x1, 0x1885000 <go:string.*+0x5508>
 13104d8: 912a9821     	add	x1, x1, #0xaa6
 13104dc: b27d03e2     	orr	x2, xzr, #0x8
 13104e0: 97f2ca54     	bl	0xfc2e30 <github.com/gorilla/mux.(*Router).PathPrefix>
 13104e4: f900abe0     	str	x0, [sp, #0x150]
 13104e8: 9001399b     	adrp	x27, 0x3a40000 <write@GLIBC_2.17+0x3a40000>
 13104ec: f941f363     	ldr	x3, [x27, #0x3e0]
 13104f0: 9000d724     	adrp	x4, 0x2df4000 <github.com/openai/openai-go/v3/packages/param..dict.MarshalObject[github.com/openai/openai-go/v3/responses.ResponseInputItemMcpApprovalRequestParam]>
 13104f4: 9131e084     	add	x4, x4, #0xc78
 13104f8: 9112a3fb     	add	x27, sp, #0x4a8
 13104fc: a9000f64     	stp	x4, x3, [x27]
 1310500: b0001c00     	adrp	x0, 0x1691000 <type:*+0x25b180>
 1310504: 91258000     	add	x0, x0, #0x960
 1310508: 9112a3e1     	add	x1, sp, #0x4a8
 131050c: 97c42561     	bl	0x419a90 <runtime.convT>
 1310510: f90137e0     	str	x0, [sp, #0x268]
 1310514: 97c6c3eb     	bl	0x4c14c0 <time.Now>
 1310518: f9007be0     	str	x0, [sp, #0xf0]
 131051c: f90133e2     	str	x2, [sp, #0x260]
 1310520: f90077e1     	str	x1, [sp, #0xe8]
 1310524: f0001c80     	adrp	x0, 0x16a3000 <type:*+0x26d180>
 1310528: 91208000     	add	x0, x0, #0x820
 131052c: 97c43409     	bl	0x41d550 <runtime.newobject>
 1310530: 9000d723     	adrp	x3, 0x2df4000 <github.com/openai/openai-go/v3/packages/param..dict.MarshalObject[github.com/openai/openai-go/v3/responses.ResponseInputItemMcpApprovalRequestParam]>
 1310534: 91386063     	add	x3, x3, #0xe18
 1310538: f9000003     	str	x3, [x0]
 131053c: 900143bb     	adrp	x27, 0x3b84000 <crypto/internal/fips140deps/cpu.S390XHasSHA3>
 1310540: b94a7363     	ldr	w3, [x27, #0xa70]
 1310544: 35000083     	cbnz	w3, 0x1310554 <main.main+0x4134>
 1310548: f94137e1     	ldr	x1, [sp, #0x268]
 131054c: f94133e2     	ldr	x2, [sp, #0x260]
 1310550: 14000005     	b	0x1310564 <main.main+0x4144>
 1310554: 97c5e03f     	bl	0x488650 <runtime.gcWriteBarrier2>
 1310558: f94137e1     	ldr	x1, [sp, #0x268]
 131055c: f94133e2     	ldr	x2, [sp, #0x260]
 1310560: a9000b21     	stp	x1, x2, [x25]
 1310564: f9007fe0     	str	x0, [sp, #0xf8]
 1310568: f9407be3     	ldr	x3, [sp, #0xf0]
 131056c: a9008c01     	stp	x1, x3, [x0, #0x8]
 1310570: f94077e1     	ldr	x1, [sp, #0xe8]
 1310574: a9018801     	stp	x1, x2, [x0, #0x18]
 1310578: f0001940     	adrp	x0, 0x163b000 <type:*+0x205180>
 131057c: 91320000     	add	x0, x0, #0xc80
 1310580: 97c433f4     	bl	0x41d550 <runtime.newobject>
 1310584: 9000d721     	adrp	x1, 0x2df4000 <github.com/openai/openai-go/v3/packages/param..dict.MarshalObject[github.com/openai/openai-go/v3/responses.ResponseInputItemMcpApprovalRequestParam]>
 1310588: 9133e021     	add	x1, x1, #0xcf8
 131058c: f9000001     	str	x1, [x0]
 1310590: 900143bb     	adrp	x27, 0x3b84000 <crypto/internal/fips140deps/cpu.S390XHasSHA3>
 1310594: b94a7361     	ldr	w1, [x27, #0xa70]
 1310598: 35000061     	cbnz	w1, 0x13105a4 <main.main+0x4184>
 131059c: f9407fe8     	ldr	x8, [sp, #0xf8]
 13105a0: 14000004     	b	0x13105b0 <main.main+0x4190>
 13105a4: 97c5e027     	bl	0x488640 <runtime.gcWriteBarrier1>
 13105a8: f9407fe8     	ldr	x8, [sp, #0xf8]
 13105ac: f9000328     	str	x8, [x25]
 13105b0: f9000408     	str	x8, [x0, #0x8]
 13105b4: f94103e8     	ldr	x8, [sp, #0x200]
 13105b8: f9400109     	ldr	x9, [x8]
 13105bc: a942a929     	ldp	x9, x10, [x9, #0x28]
 13105c0: b500008a     	cbnz	x10, 0x13105d0 <main.main+0x41b0>
 13105c4: 9000d721     	adrp	x1, 0x2df4000 <github.com/openai/openai-go/v3/packages/param..dict.MarshalObject[github.com/openai/openai-go/v3/responses.ResponseInputItemMcpApprovalRequestParam]>
 13105c8: 91376021     	add	x1, x1, #0xdd8
 13105cc: 1400001d     	b	0x1310640 <main.main+0x4220>
 13105d0: f900c3e9     	str	x9, [sp, #0x180]
 13105d4: f90043ea     	str	x10, [sp, #0x80]
 13105d8: f9013be0     	str	x0, [sp, #0x270]
 13105dc: b0001de0     	adrp	x0, 0x16cd000 <type:*+0x297180>
 13105e0: 91308000     	add	x0, x0, #0xc20
 13105e4: 97c433db     	bl	0x41d550 <runtime.newobject>
 13105e8: 90000001     	adrp	x1, 0x1310000 <main.main+0x3be0>
 13105ec: 91370021     	add	x1, x1, #0xdc0
 13105f0: f9000001     	str	x1, [x0]
 13105f4: f94043e1     	ldr	x1, [sp, #0x80]
 13105f8: f9000801     	str	x1, [x0, #0x10]
 13105fc: 900143bb     	adrp	x27, 0x3b84000 <crypto/internal/fips140deps/cpu.S390XHasSHA3>
 1310600: b94a7361     	ldr	w1, [x27, #0xa70]
 1310604: 35000081     	cbnz	w1, 0x1310614 <main.main+0x41f4>
 1310608: f940c3e8     	ldr	x8, [sp, #0x180]
 131060c: f9413be9     	ldr	x9, [sp, #0x270]
 1310610: 14000005     	b	0x1310624 <main.main+0x4204>
 1310614: 97c5e00f     	bl	0x488650 <runtime.gcWriteBarrier2>
 1310618: f940c3e8     	ldr	x8, [sp, #0x180]
 131061c: f9413be9     	ldr	x9, [sp, #0x270]
 1310620: a9002728     	stp	x8, x9, [x25]
 1310624: f9000408     	str	x8, [x0, #0x8]
 1310628: 9000d728     	adrp	x8, 0x2df4000 <github.com/openai/openai-go/v3/packages/param..dict.MarshalObject[github.com/openai/openai-go/v3/responses.ResponseInputItemMcpApprovalRequestParam]>
 131062c: 91376108     	add	x8, x8, #0xdd8
 1310630: a901a408     	stp	x8, x9, [x0, #0x18]
 1310634: f94103e8     	ldr	x8, [sp, #0x200]
 1310638: 9000d721     	adrp	x1, 0x2df4000 <github.com/openai/openai-go/v3/packages/param..dict.MarshalObject[github.com/openai/openai-go/v3/responses.ResponseInputItemMcpApprovalRequestParam]>
 131063c: 9136e021     	add	x1, x1, #0xdb8
 1310640: f940abe9     	ldr	x9, [sp, #0x150]
 1310644: f940152a     	ldr	x10, [x9, #0x28]
 1310648: b500012a     	cbnz	x10, 0x131066c <main.main+0x424c>
 131064c: f9000121     	str	x1, [x9]
 1310650: 900143bb     	adrp	x27, 0x3b84000 <crypto/internal/fips140deps/cpu.S390XHasSHA3>
 1310654: b94a736a     	ldr	w10, [x27, #0xa70]
 1310658: 3400008a     	cbz	w10, 0x1310668 <main.main+0x4248>
 131065c: f940052a     	ldr	x10, [x9, #0x8]
 1310660: 97c5dffc     	bl	0x488650 <runtime.gcWriteBarrier2>
 1310664: a9002b20     	stp	x0, x10, [x25]
 1310668: f9000520     	str	x0, [x9, #0x8]
 131066c: b001399b     	adrp	x27, 0x3a41000 <github.com/mattn/go-sqlite3._cgo_007649fec91e_Cfunc_sqlite3_value_double>
 1310670: 9115c37b     	add	x27, x27, #0x570
 1310674: a9400f62     	ldp	x2, x3, [x27]
 1310678: f9400108     	ldr	x8, [x8]
 131067c: a9428500     	ldp	x0, x1, [x8, #0x28]
 1310680: 3943a509     	ldrb	w9, [x8, #0xe9]
 1310684: d2400126     	eor	x6, x9, #0x1
 1310688: 3943b107     	ldrb	w7, [x8, #0xec]
 131068c: f940d7e4     	ldr	x4, [sp, #0x1a8]
 1310690: f9404fe5     	ldr	x5, [sp, #0x98]
 1310694: 940017bb     	bl	0x1316580 <main.readIndexHtml>
 1310698: f90053e1     	str	x1, [sp, #0xa0]
 131069c: f90057e2     	str	x2, [sp, #0xa8]
 13106a0: f900dbe0     	str	x0, [sp, #0x1b0]
 13106a4: f940b7e0     	ldr	x0, [sp, #0x168]
 13106a8: aa1f03e1     	mov	x1, xzr
 13106ac: aa1f03e2     	mov	x2, xzr
 13106b0: 97f2c9e0     	bl	0xfc2e30 <github.com/gorilla/mux.(*Router).PathPrefix>
 13106b4: f900a7e0     	str	x0, [sp, #0x148]
 13106b8: f0001a60     	adrp	x0, 0x165f000 <type:*+0x229180>
 13106bc: 910c8000     	add	x0, x0, #0x320
 13106c0: 97c433a4     	bl	0x41d550 <runtime.newobject>
 13106c4: 90000008     	adrp	x8, 0x1310000 <main.main+0x3be0>
 13106c8: 91358108     	add	x8, x8, #0xd60
 13106cc: f9000008     	str	x8, [x0]
 13106d0: f94053e8     	ldr	x8, [sp, #0xa0]
 13106d4: f94057e9     	ldr	x9, [sp, #0xa8]
 13106d8: a9012408     	stp	x8, x9, [x0, #0x10]
 13106dc: 900143bb     	adrp	x27, 0x3b84000 <crypto/internal/fips140deps/cpu.S390XHasSHA3>
 13106e0: b94a7368     	ldr	w8, [x27, #0xa70]
 13106e4: 35000068     	cbnz	w8, 0x13106f0 <main.main+0x42d0>
 13106e8: f940dbe3     	ldr	x3, [sp, #0x1b0]
 13106ec: 14000004     	b	0x13106fc <main.main+0x42dc>
 13106f0: 97c5dfd4     	bl	0x488640 <runtime.gcWriteBarrier1>
 13106f4: f940dbe3     	ldr	x3, [sp, #0x1b0]
 13106f8: f9000323     	str	x3, [x25]
 13106fc: f9000403     	str	x3, [x0, #0x8]
 1310700: d503201f     	nop
 1310704: f940a7e3     	ldr	x3, [sp, #0x148]
 1310708: f9401464     	ldr	x4, [x3, #0x28]
 131070c: b5000164     	cbnz	x4, 0x1310738 <main.main+0x4318>
 1310710: 9000d724     	adrp	x4, 0x2df4000 <github.com/openai/openai-go/v3/packages/param..dict.MarshalObject[github.com/openai/openai-go/v3/responses.ResponseInputItemMcpApprovalRequestParam]>
 1310714: 9136e084     	add	x4, x4, #0xdb8
 1310718: f9000064     	str	x4, [x3]
 131071c: 900143bb     	adrp	x27, 0x3b84000 <crypto/internal/fips140deps/cpu.S390XHasSHA3>
 1310720: b94a7364     	ldr	w4, [x27, #0xa70]
 1310724: 34000084     	cbz	w4, 0x1310734 <main.main+0x4314>
 1310728: f9400464     	ldr	x4, [x3, #0x8]
 131072c: 97c5dfc9     	bl	0x488650 <runtime.gcWriteBarrier2>
 1310730: a9001320     	stp	x0, x4, [x25]
 1310734: f9000460     	str	x0, [x3, #0x8]
 1310738: f94087e0     	ldr	x0, [sp, #0x108]
 131073c: aa1f03e1     	mov	x1, xzr
 1310740: aa1f03e2     	mov	x2, xzr
 1310744: 97f2c9bb     	bl	0xfc2e30 <github.com/gorilla/mux.(*Router).PathPrefix>
 1310748: f900a3e0     	str	x0, [sp, #0x140]
 131074c: f94103e3     	ldr	x3, [sp, #0x200]
 1310750: f9400063     	ldr	x3, [x3]
 1310754: a9429063     	ldp	x3, x4, [x3, #0x28]
 1310758: f9003fe4     	str	x4, [sp, #0x78]
 131075c: f9009be3     	str	x3, [sp, #0x130]
 1310760: b0001c80     	adrp	x0, 0x16a1000 <type:*+0x26b180>
 1310764: 910a8000     	add	x0, x0, #0x2a0
 1310768: 97c4337a     	bl	0x41d550 <runtime.newobject>
 131076c: f9403fe3     	ldr	x3, [sp, #0x78]
 1310770: f9000403     	str	x3, [x0, #0x8]
 1310774: 900143bb     	adrp	x27, 0x3b84000 <crypto/internal/fips140deps/cpu.S390XHasSHA3>
 1310778: b94a7363     	ldr	w3, [x27, #0xa70]
 131077c: 35000063     	cbnz	w3, 0x1310788 <main.main+0x4368>
 1310780: f9409be1     	ldr	x1, [sp, #0x130]
 1310784: 14000004     	b	0x1310794 <main.main+0x4374>
 1310788: 97c5dfae     	bl	0x488640 <runtime.gcWriteBarrier1>
 131078c: f9409be1     	ldr	x1, [sp, #0x130]
 1310790: f9000321     	str	x1, [x25]
 1310794: f9000001     	str	x1, [x0]
 1310798: d28025a1     	mov	x1, #0x12d              // =301
 131079c: f9000801     	str	x1, [x0, #0x10]
 13107a0: f940a3e1     	ldr	x1, [sp, #0x140]
 13107a4: f9401422     	ldr	x2, [x1, #0x28]
 13107a8: b5000162     	cbnz	x2, 0x13107d4 <main.main+0x43b4>
 13107ac: 9000d722     	adrp	x2, 0x2df4000 <github.com/openai/openai-go/v3/packages/param..dict.MarshalObject[github.com/openai/openai-go/v3/responses.ResponseInputItemMcpApprovalRequestParam]>
 13107b0: 9137e042     	add	x2, x2, #0xdf8
 13107b4: f9000022     	str	x2, [x1]
 13107b8: 900143bb     	adrp	x27, 0x3b84000 <crypto/internal/fips140deps/cpu.S390XHasSHA3>
 13107bc: b94a7362     	ldr	w2, [x27, #0xa70]
 13107c0: 34000082     	cbz	w2, 0x13107d0 <main.main+0x43b0>
 13107c4: f9400422     	ldr	x2, [x1, #0x8]
 13107c8: 97c5dfa2     	bl	0x488650 <runtime.gcWriteBarrier2>
 13107cc: a9000b20     	stp	x0, x2, [x25]
 13107d0: f9000420     	str	x0, [x1, #0x8]
 13107d4: f940dfe0     	ldr	x0, [sp, #0x1b8]
 13107d8: 97f0039a     	bl	0xf11640 <github.com/coroot/coroot/grpc.(*Server).Start>
 13107dc: b4000340     	cbz	x0, 0x1310844 <main.main+0x4424>
 13107e0: 910d03fb     	add	x27, sp, #0x340
 13107e4: a9007f7f     	stp	xzr, xzr, [x27]
 13107e8: 910d43fb     	add	x27, sp, #0x350
 13107ec: a9007f7f     	stp	xzr, xzr, [x27]
 13107f0: f0001145     	adrp	x5, 0x153b000 <type:*+0x105180>
 13107f4: 911600a5     	add	x5, x5, #0x580
 13107f8: b000d6c6     	adrp	x6, 0x2de9000 <$f64.5e50000000000000>
 13107fc: 910360c6     	add	x6, x6, #0xd8
 1310800: 910d03fb     	add	x27, sp, #0x340
 1310804: a9001b65     	stp	x5, x6, [x27]
 1310808: b4000040     	cbz	x0, 0x1310810 <main.main+0x43f0>
 131080c: f9400400     	ldr	x0, [x0, #0x8]
 1310810: 910d43fb     	add	x27, sp, #0x350
 1310814: a9000760     	stp	x0, x1, [x27]
 1310818: b24003e5     	orr	x5, xzr, #0x1
 131081c: 900143a6     	adrp	x6, 0x3b84000 <crypto/internal/fips140deps/cpu.S390XHasSHA3>
 1310820: 910080c6     	add	x6, x6, #0x20
 1310824: 889ffcc5     	stlr	w5, [x6]
 1310828: 90014200     	adrp	x0, 0x3b50000 <github.com/gorilla/websocket.nilDialer+0x60>
 131082c: 91178000     	add	x0, x0, #0x5e0
 1310830: b24007e1     	orr	x1, xzr, #0x3
 1310834: 910d03e2     	add	x2, sp, #0x340
 1310838: b27f03e3     	orr	x3, xzr, #0x2
 131083c: aa0303e4     	mov	x4, x3
 1310840: 97d63084     	bl	0x89ca50 <k8s.io/klog.(*loggingT).println>
 1310844: f94103e2     	ldr	x2, [sp, #0x200]
 1310848: f9400043     	ldr	x3, [x2]
 131084c: 39408064     	ldrb	w4, [x3, #0x20]
 1310850: 37000064     	tbnz	w4, #0x0, 0x131085c <main.main+0x443c>
 1310854: f9400c65     	ldr	x5, [x3, #0x18]
 1310858: b5001265     	cbnz	x5, 0x1310aa4 <main.main+0x4684>
 131085c: f9400c63     	ldr	x3, [x3, #0x18]
 1310860: b5000823     	cbnz	x3, 0x1310964 <main.main+0x4544>
 1310864: 37001c24     	tbnz	w4, #0x0, 0x1310be8 <main.main+0x47c8>
 1310868: 910ac3fb     	add	x27, sp, #0x2b0
 131086c: a9007f7f     	stp	xzr, xzr, [x27]
 1310870: 910b03fb     	add	x27, sp, #0x2c0
 1310874: a9007f7f     	stp	xzr, xzr, [x27]
 1310878: f0001143     	adrp	x3, 0x153b000 <type:*+0x105180>
 131087c: 91160063     	add	x3, x3, #0x580
 1310880: b000d6c4     	adrp	x4, 0x2de9000 <$f64.5e50000000000000>
 1310884: 9103e084     	add	x4, x4, #0xf8
 1310888: 910ac3fb     	add	x27, sp, #0x2b0
 131088c: a9001363     	stp	x3, x4, [x27]
 1310890: f9400042     	ldr	x2, [x2]
 1310894: a9400440     	ldp	x0, x1, [x2]
 1310898: 97c5b436     	bl	0x47d970 <runtime.convTstring>
 131089c: f0001142     	adrp	x2, 0x153b000 <type:*+0x105180>
 13108a0: 91160042     	add	x2, x2, #0x580
 13108a4: 910b03fb     	add	x27, sp, #0x2c0
 13108a8: a9000362     	stp	x2, x0, [x27]
 13108ac: 90014200     	adrp	x0, 0x3b50000 <github.com/gorilla/websocket.nilDialer+0x60>
 13108b0: 91178000     	add	x0, x0, #0x5e0
 13108b4: aa1f03e1     	mov	x1, xzr
 13108b8: 910ac3e2     	add	x2, sp, #0x2b0
 13108bc: b27f03e3     	orr	x3, xzr, #0x2
 13108c0: aa0303e4     	mov	x4, x3
 13108c4: 97d63063     	bl	0x89ca50 <k8s.io/klog.(*loggingT).println>
 13108c8: f94103e2     	ldr	x2, [sp, #0x200]
 13108cc: f9400042     	ldr	x2, [x2]
 13108d0: a9400c42     	ldp	x2, x3, [x2]
 13108d4: f9006be3     	str	x3, [sp, #0xd0]
 13108d8: f90123e2     	str	x2, [sp, #0x240]
 13108dc: b0002a20     	adrp	x0, 0x1855000 <type:*+0x41f180>
 13108e0: 91068000     	add	x0, x0, #0x1a0
 13108e4: 97c4331b     	bl	0x41d550 <runtime.newobject>
 13108e8: f9406be2     	ldr	x2, [sp, #0xd0]
 13108ec: f9000402     	str	x2, [x0, #0x8]
 13108f0: 900143bb     	adrp	x27, 0x3b84000 <crypto/internal/fips140deps/cpu.S390XHasSHA3>
 13108f4: b94a7362     	ldr	w2, [x27, #0xa70]
 13108f8: 35000082     	cbnz	w2, 0x1310908 <main.main+0x44e8>
 13108fc: f94123e1     	ldr	x1, [sp, #0x240]
 1310900: f94087e2     	ldr	x2, [sp, #0x108]
 1310904: 14000005     	b	0x1310918 <main.main+0x44f8>
 1310908: 97c5df52     	bl	0x488650 <runtime.gcWriteBarrier2>
 131090c: f94123e1     	ldr	x1, [sp, #0x240]
 1310910: f94087e2     	ldr	x2, [sp, #0x108]
 1310914: a9000b21     	stp	x1, x2, [x25]
 1310918: f9000001     	str	x1, [x0]
 131091c: 9000d721     	adrp	x1, 0x2df4000 <github.com/openai/openai-go/v3/packages/param..dict.MarshalObject[github.com/openai/openai-go/v3/responses.ResponseInputItemMcpApprovalRequestParam]>
 1310920: 91346021     	add	x1, x1, #0xd18
 1310924: a9010801     	stp	x1, x2, [x0, #0x10]
 1310928: 97cef6d2     	bl	0x6ce470 <net/http.(*Server).ListenAndServe>
 131092c: 910a83fb     	add	x27, sp, #0x2a0
 1310930: a9007f7f     	stp	xzr, xzr, [x27]
 1310934: b4000040     	cbz	x0, 0x131093c <main.main+0x451c>
 1310938: f9400400     	ldr	x0, [x0, #0x8]
 131093c: 910a83fb     	add	x27, sp, #0x2a0
 1310940: a9000760     	stp	x0, x1, [x27]
 1310944: 90014200     	adrp	x0, 0x3b50000 <github.com/gorilla/websocket.nilDialer+0x60>
 1310948: 91178000     	add	x0, x0, #0x5e0
 131094c: b24007e1     	orr	x1, xzr, #0x3
 1310950: 910a83e2     	add	x2, sp, #0x2a0
 1310954: b24003e3     	orr	x3, xzr, #0x1
 1310958: aa0303e4     	mov	x4, x3
 131095c: 97d6303d     	bl	0x89ca50 <k8s.io/klog.(*loggingT).println>
 1310960: 140000a2     	b	0x1310be8 <main.main+0x47c8>
 1310964: 910b83fb     	add	x27, sp, #0x2e0
 1310968: a9007f7f     	stp	xzr, xzr, [x27]
 131096c: 910bc3fb     	add	x27, sp, #0x2f0
 1310970: a9007f7f     	stp	xzr, xzr, [x27]
 1310974: 910c03fb     	add	x27, sp, #0x300
 1310978: a9007f7f     	stp	xzr, xzr, [x27]
 131097c: f0001143     	adrp	x3, 0x153b000 <type:*+0x105180>
 1310980: 91160063     	add	x3, x3, #0x580
 1310984: b000d6c4     	adrp	x4, 0x2de9000 <$f64.5e50000000000000>
 1310988: 9103e084     	add	x4, x4, #0xf8
 131098c: 910b83fb     	add	x27, sp, #0x2e0
 1310990: a9001363     	stp	x3, x4, [x27]
 1310994: f9400042     	ldr	x2, [x2]
 1310998: a9410440     	ldp	x0, x1, [x2, #0x10]
 131099c: 97c5b3f5     	bl	0x47d970 <runtime.convTstring>
 13109a0: f0001142     	adrp	x2, 0x153b000 <type:*+0x105180>
 13109a4: 91160042     	add	x2, x2, #0x580
 13109a8: 910bc3fb     	add	x27, sp, #0x2f0
 13109ac: a9000362     	stp	x2, x0, [x27]
 13109b0: b000d6c3     	adrp	x3, 0x2de9000 <$f64.5e50000000000000>
 13109b4: 91042063     	add	x3, x3, #0x108
 13109b8: 910c03fb     	add	x27, sp, #0x300
 13109bc: a9000f62     	stp	x2, x3, [x27]
 13109c0: 90014200     	adrp	x0, 0x3b50000 <github.com/gorilla/websocket.nilDialer+0x60>
 13109c4: 91178000     	add	x0, x0, #0x5e0
 13109c8: aa1f03e1     	mov	x1, xzr
 13109cc: 910b83e2     	add	x2, sp, #0x2e0
 13109d0: b24007e3     	orr	x3, xzr, #0x3
 13109d4: aa0303e4     	mov	x4, x3
 13109d8: 97d6301e     	bl	0x89ca50 <k8s.io/klog.(*loggingT).println>
 13109dc: f94103e2     	ldr	x2, [sp, #0x200]
 13109e0: f9400042     	ldr	x2, [x2]
 13109e4: a9411043     	ldp	x3, x4, [x2, #0x10]
 13109e8: f9006fe4     	str	x4, [sp, #0xd8]
 13109ec: f90127e3     	str	x3, [sp, #0x248]
 13109f0: f9403042     	ldr	x2, [x2, #0x60]
 13109f4: a9401043     	ldp	x3, x4, [x2]
 13109f8: f90063e4     	str	x4, [sp, #0xc0]
 13109fc: f90107e3     	str	x3, [sp, #0x208]
 1310a00: a9410c42     	ldp	x2, x3, [x2, #0x10]
 1310a04: f9004be3     	str	x3, [sp, #0x90]
 1310a08: f900d3e2     	str	x2, [sp, #0x1a0]
 1310a0c: b0002a20     	adrp	x0, 0x1855000 <type:*+0x41f180>
 1310a10: 91068000     	add	x0, x0, #0x1a0
 1310a14: 97c432cf     	bl	0x41d550 <runtime.newobject>
 1310a18: f9406fe2     	ldr	x2, [sp, #0xd8]
 1310a1c: f9000402     	str	x2, [x0, #0x8]
 1310a20: 900143bb     	adrp	x27, 0x3b84000 <crypto/internal/fips140deps/cpu.S390XHasSHA3>
 1310a24: b94a7362     	ldr	w2, [x27, #0xa70]
 1310a28: 35000082     	cbnz	w2, 0x1310a38 <main.main+0x4618>
 1310a2c: f94127e5     	ldr	x5, [sp, #0x248]
 1310a30: f94087e6     	ldr	x6, [sp, #0x108]
 1310a34: 14000005     	b	0x1310a48 <main.main+0x4628>
 1310a38: 97c5df06     	bl	0x488650 <runtime.gcWriteBarrier2>
 1310a3c: f94127e5     	ldr	x5, [sp, #0x248]
 1310a40: f94087e6     	ldr	x6, [sp, #0x108]
 1310a44: a9001b25     	stp	x5, x6, [x25]
 1310a48: f9000005     	str	x5, [x0]
 1310a4c: 9000d725     	adrp	x5, 0x2df4000 <github.com/openai/openai-go/v3/packages/param..dict.MarshalObject[github.com/openai/openai-go/v3/responses.ResponseInputItemMcpApprovalRequestParam]>
 1310a50: 913460a5     	add	x5, x5, #0xd18
 1310a54: a9011805     	stp	x5, x6, [x0, #0x10]
 1310a58: f94107e1     	ldr	x1, [sp, #0x208]
 1310a5c: f94063e2     	ldr	x2, [sp, #0xc0]
 1310a60: f940d3e3     	ldr	x3, [sp, #0x1a0]
 1310a64: f9404be4     	ldr	x4, [sp, #0x90]
 1310a68: 97cefc6e     	bl	0x6cfc20 <net/http.(*Server).ListenAndServeTLS>
 1310a6c: 910b43fb     	add	x27, sp, #0x2d0
 1310a70: a9007f7f     	stp	xzr, xzr, [x27]
 1310a74: b4000040     	cbz	x0, 0x1310a7c <main.main+0x465c>
 1310a78: f9400400     	ldr	x0, [x0, #0x8]
 1310a7c: 910b43fb     	add	x27, sp, #0x2d0
 1310a80: a9000760     	stp	x0, x1, [x27]
 1310a84: 90014200     	adrp	x0, 0x3b50000 <github.com/gorilla/websocket.nilDialer+0x60>
 1310a88: 91178000     	add	x0, x0, #0x5e0
 1310a8c: b24007e1     	orr	x1, xzr, #0x3
 1310a90: 910b43e2     	add	x2, sp, #0x2d0
 1310a94: b24003e3     	orr	x3, xzr, #0x1
 1310a98: aa0303e4     	mov	x4, x3
 1310a9c: 97d62fed     	bl	0x89ca50 <k8s.io/klog.(*loggingT).println>
 1310aa0: 14000052     	b	0x1310be8 <main.main+0x47c8>
 1310aa4: b0001de0     	adrp	x0, 0x16cd000 <type:*+0x297180>
 1310aa8: 912b8000     	add	x0, x0, #0xae0
 1310aac: 97c432a9     	bl	0x41d550 <runtime.newobject>
 1310ab0: 90000001     	adrp	x1, 0x1310000 <main.main+0x3be0>
 1310ab4: 91300021     	add	x1, x1, #0xc00
 1310ab8: f9000001     	str	x1, [x0]
 1310abc: 900143bb     	adrp	x27, 0x3b84000 <crypto/internal/fips140deps/cpu.S390XHasSHA3>
 1310ac0: b94a7361     	ldr	w1, [x27, #0xa70]
 1310ac4: 35000081     	cbnz	w1, 0x1310ad4 <main.main+0x46b4>
 1310ac8: f94103e1     	ldr	x1, [sp, #0x200]
 1310acc: f94087e2     	ldr	x2, [sp, #0x108]
 1310ad0: 14000005     	b	0x1310ae4 <main.main+0x46c4>
 1310ad4: 97c5dedf     	bl	0x488650 <runtime.gcWriteBarrier2>
 1310ad8: f94103e1     	ldr	x1, [sp, #0x200]
 1310adc: f94087e2     	ldr	x2, [sp, #0x108]
 1310ae0: a9000b21     	stp	x1, x2, [x25]
 1310ae4: a9008801     	stp	x1, x2, [x0, #0x8]
 1310ae8: 97c51282     	bl	0x4554f0 <runtime.newproc>
 1310aec: 910c83fb     	add	x27, sp, #0x320
 1310af0: a9007f7f     	stp	xzr, xzr, [x27]
 1310af4: 910cc3fb     	add	x27, sp, #0x330
 1310af8: a9007f7f     	stp	xzr, xzr, [x27]
 1310afc: f0001141     	adrp	x1, 0x153b000 <type:*+0x105180>
 1310b00: 91160021     	add	x1, x1, #0x580
 1310b04: b000d6c2     	adrp	x2, 0x2de9000 <$f64.5e50000000000000>
 1310b08: 9103e042     	add	x2, x2, #0xf8
 1310b0c: 910c83fb     	add	x27, sp, #0x320
 1310b10: a9000b61     	stp	x1, x2, [x27]
 1310b14: f94103e1     	ldr	x1, [sp, #0x200]
 1310b18: f9400021     	ldr	x1, [x1]
 1310b1c: a9400420     	ldp	x0, x1, [x1]
 1310b20: 97c5b394     	bl	0x47d970 <runtime.convTstring>
 1310b24: f0001141     	adrp	x1, 0x153b000 <type:*+0x105180>
 1310b28: 91160021     	add	x1, x1, #0x580
 1310b2c: 910cc3fb     	add	x27, sp, #0x330
 1310b30: a9000361     	stp	x1, x0, [x27]
 1310b34: 90014200     	adrp	x0, 0x3b50000 <github.com/gorilla/websocket.nilDialer+0x60>
 1310b38: 91178000     	add	x0, x0, #0x5e0
 1310b3c: aa1f03e1     	mov	x1, xzr
 1310b40: 910c83e2     	add	x2, sp, #0x320
 1310b44: b27f03e3     	orr	x3, xzr, #0x2
 1310b48: aa0303e4     	mov	x4, x3
 1310b4c: 97d62fc1     	bl	0x89ca50 <k8s.io/klog.(*loggingT).println>
 1310b50: f94103e1     	ldr	x1, [sp, #0x200]
 1310b54: f9400021     	ldr	x1, [x1]
 1310b58: a9400821     	ldp	x1, x2, [x1]
 1310b5c: f90073e2     	str	x2, [sp, #0xe0]
 1310b60: f9012be1     	str	x1, [sp, #0x250]
 1310b64: b0002a20     	adrp	x0, 0x1855000 <type:*+0x41f180>
 1310b68: 91068000     	add	x0, x0, #0x1a0
 1310b6c: 97c43279     	bl	0x41d550 <runtime.newobject>
 1310b70: f94073e1     	ldr	x1, [sp, #0xe0]
 1310b74: f9000401     	str	x1, [x0, #0x8]
 1310b78: 900143bb     	adrp	x27, 0x3b84000 <crypto/internal/fips140deps/cpu.S390XHasSHA3>
 1310b7c: b94a7361     	ldr	w1, [x27, #0xa70]
 1310b80: 35000081     	cbnz	w1, 0x1310b90 <main.main+0x4770>
 1310b84: f9412be1     	ldr	x1, [sp, #0x250]
 1310b88: f94087e2     	ldr	x2, [sp, #0x108]
 1310b8c: 14000005     	b	0x1310ba0 <main.main+0x4780>
 1310b90: 97c5deb0     	bl	0x488650 <runtime.gcWriteBarrier2>
 1310b94: f9412be1     	ldr	x1, [sp, #0x250]
 1310b98: f94087e2     	ldr	x2, [sp, #0x108]
 1310b9c: a9000b21     	stp	x1, x2, [x25]
 1310ba0: f9000001     	str	x1, [x0]
 1310ba4: 9000d721     	adrp	x1, 0x2df4000 <github.com/openai/openai-go/v3/packages/param..dict.MarshalObject[github.com/openai/openai-go/v3/responses.ResponseInputItemMcpApprovalRequestParam]>
 1310ba8: 91346021     	add	x1, x1, #0xd18
 1310bac: a9010801     	stp	x1, x2, [x0, #0x10]
 1310bb0: 97cef630     	bl	0x6ce470 <net/http.(*Server).ListenAndServe>
 1310bb4: 910c43fb     	add	x27, sp, #0x310
 1310bb8: a9007f7f     	stp	xzr, xzr, [x27]
 1310bbc: b4000040     	cbz	x0, 0x1310bc4 <main.main+0x47a4>
 1310bc0: f9400400     	ldr	x0, [x0, #0x8]
 1310bc4: 910c43fb     	add	x27, sp, #0x310
 1310bc8: a9000760     	stp	x0, x1, [x27]
 1310bcc: 90014200     	adrp	x0, 0x3b50000 <github.com/gorilla/websocket.nilDialer+0x60>
 1310bd0: 91178000     	add	x0, x0, #0x5e0
 1310bd4: b24007e1     	orr	x1, xzr, #0x3
 1310bd8: 910c43e2     	add	x2, sp, #0x310
 1310bdc: b24003e3     	orr	x3, xzr, #0x1
 1310be0: aa0303e4     	mov	x4, x3
 1310be4: 97d62f9b     	bl	0x89ca50 <k8s.io/klog.(*loggingT).println>
 1310be8: a97ffbfd     	ldp	x29, x30, [sp, #-0x8]
 1310bec: 9113c3ff     	add	sp, sp, #0x4f0
 1310bf0: d65f03c0     	ret
 1310bf4: aa1e03e3     	mov	x3, x30
 1310bf8: 97c5d5aa     	bl	0x4862a0 <runtime.morestack_noctxt.abi0>
 1310bfc: 17ffee09     	b	0x130c420 <main.main>
